GAS LISTING /tmp/ccQevoHd.s 			page 1


   1              		.file	"ksyscall.cpp"
   2              		.option pic
   3              		.option norelax
   4              		.text
   5              	.Ltext0:
   6              		.align	2
   7              		.globl	_Z10kmem_allocm
   9              	_Z10kmem_allocm:
  10              	.LFB1:
  11              		.file 1 "src/ksyscall.cpp"
   1:src/ksyscall.cpp **** #include "../h/ksyscall_cpp.h"
   2:src/ksyscall.cpp **** #include "../h/MemoryAllocator.h"
   3:src/ksyscall.cpp **** 
   4:src/ksyscall.cpp **** void handleSupervisorTrap(uint code, void *args) {
   5:src/ksyscall.cpp ****     switch (code) {
   6:src/ksyscall.cpp ****         case (0x01): kmem_alloc((size_t) args); break;
   7:src/ksyscall.cpp ****         case (0x02): kmem_free(args); break;
   8:src/ksyscall.cpp ****         default: return;
   9:src/ksyscall.cpp ****     }
  10:src/ksyscall.cpp **** }
  11:src/ksyscall.cpp **** 
  12:src/ksyscall.cpp **** void *kmem_alloc(size_t size) {
  12              		.loc 1 12 31
  13              		.cfi_startproc
  14              	.LVL0:
  15 0000 130101FE 		addi	sp,sp,-32
  16              		.cfi_def_cfa_offset 32
  17 0004 233C1100 		sd	ra,24(sp)
  18 0008 23388100 		sd	s0,16(sp)
  19 000c 23349100 		sd	s1,8(sp)
  20              		.cfi_offset 1, -8
  21              		.cfi_offset 8, -16
  22              		.cfi_offset 9, -24
  23 0010 13040102 		addi	s0,sp,32
  24              		.cfi_def_cfa 8, 0
  25 0014 93040500 		mv	s1,a0
  13:src/ksyscall.cpp ****     return MemoryAllocator::getInstance()->malloc(size);
  26              		.loc 1 13 5
  27              		.loc 1 13 50 is_stmt 0
  28 0018 97000000 		call	_ZN15MemoryAllocator11getInstanceEv@plt
  28      E7800000 
  29              	.LVL1:
  30 0020 93850400 		mv	a1,s1
  31 0024 97000000 		call	_ZN15MemoryAllocator6mallocEm@plt
  31      E7800000 
  32              	.LVL2:
  14:src/ksyscall.cpp **** }
  33              		.loc 1 14 1
  34 002c 83308101 		ld	ra,24(sp)
  35              		.cfi_restore 1
  36 0030 03340101 		ld	s0,16(sp)
  37              		.cfi_restore 8
  38              		.cfi_def_cfa 2, 32
  39 0034 83348100 		ld	s1,8(sp)
  40              		.cfi_restore 9
  41              	.LVL3:
  42 0038 13010102 		addi	sp,sp,32
GAS LISTING /tmp/ccQevoHd.s 			page 2


  43              		.cfi_def_cfa_offset 0
  44 003c 67800000 		jr	ra
  45              		.cfi_endproc
  46              	.LFE1:
  48              		.align	2
  49              		.globl	_Z9kmem_freePv
  51              	_Z9kmem_freePv:
  52              	.LFB2:
  15:src/ksyscall.cpp **** 
  16:src/ksyscall.cpp **** int kmem_free(void *addr) {
  53              		.loc 1 16 27 is_stmt 1
  54              		.cfi_startproc
  55              	.LVL4:
  56 0040 130101FE 		addi	sp,sp,-32
  57              		.cfi_def_cfa_offset 32
  58 0044 233C1100 		sd	ra,24(sp)
  59 0048 23388100 		sd	s0,16(sp)
  60 004c 23349100 		sd	s1,8(sp)
  61              		.cfi_offset 1, -8
  62              		.cfi_offset 8, -16
  63              		.cfi_offset 9, -24
  64 0050 13040102 		addi	s0,sp,32
  65              		.cfi_def_cfa 8, 0
  66 0054 93040500 		mv	s1,a0
  17:src/ksyscall.cpp ****     return MemoryAllocator::getInstance()->free(addr);
  67              		.loc 1 17 5
  68              		.loc 1 17 48 is_stmt 0
  69 0058 97000000 		call	_ZN15MemoryAllocator11getInstanceEv@plt
  69      E7800000 
  70              	.LVL5:
  71 0060 93850400 		mv	a1,s1
  72 0064 97000000 		call	_ZN15MemoryAllocator4freeEPv@plt
  72      E7800000 
  73              	.LVL6:
  18:src/ksyscall.cpp **** }
  74              		.loc 1 18 1
  75 006c 83308101 		ld	ra,24(sp)
  76              		.cfi_restore 1
  77 0070 03340101 		ld	s0,16(sp)
  78              		.cfi_restore 8
  79              		.cfi_def_cfa 2, 32
  80 0074 83348100 		ld	s1,8(sp)
  81              		.cfi_restore 9
  82              	.LVL7:
  83 0078 13010102 		addi	sp,sp,32
  84              		.cfi_def_cfa_offset 0
  85 007c 67800000 		jr	ra
  86              		.cfi_endproc
  87              	.LFE2:
  89              		.align	2
  90              		.globl	handleSupervisorTrap
  92              	handleSupervisorTrap:
  93              	.LFB0:
   4:src/ksyscall.cpp ****     switch (code) {
  94              		.loc 1 4 50 is_stmt 1
  95              		.cfi_startproc
  96              	.LVL8:
GAS LISTING /tmp/ccQevoHd.s 			page 3


  97 0080 130101FF 		addi	sp,sp,-16
  98              		.cfi_def_cfa_offset 16
  99 0084 23341100 		sd	ra,8(sp)
 100 0088 23308100 		sd	s0,0(sp)
 101              		.cfi_offset 1, -8
 102              		.cfi_offset 8, -16
 103 008c 13040101 		addi	s0,sp,16
 104              		.cfi_def_cfa 8, 0
 105 0090 93070500 		mv	a5,a0
 106 0094 13850500 		mv	a0,a1
 107              	.LVL9:
   5:src/ksyscall.cpp ****         case (0x01): kmem_alloc((size_t) args); break;
 108              		.loc 1 5 5
 109 0098 13071000 		li	a4,1
 110 009c 638EE700 		beq	a5,a4,.L6
 111 00a0 13072000 		li	a4,2
 112 00a4 6380E702 		beq	a5,a4,.L7
 113              	.LVL10:
 114              	.L5:
  10:src/ksyscall.cpp **** 
 115              		.loc 1 10 1 is_stmt 0
 116 00a8 83308100 		ld	ra,8(sp)
 117              		.cfi_remember_state
 118              		.cfi_restore 1
 119 00ac 03340100 		ld	s0,0(sp)
 120              		.cfi_restore 8
 121              		.cfi_def_cfa 2, 16
 122 00b0 13010101 		addi	sp,sp,16
 123              		.cfi_def_cfa_offset 0
 124 00b4 67800000 		jr	ra
 125              	.LVL11:
 126              	.L6:
 127              		.cfi_restore_state
   6:src/ksyscall.cpp ****         case (0x02): kmem_free(args); break;
 128              		.loc 1 6 9 is_stmt 1
   6:src/ksyscall.cpp ****         case (0x02): kmem_free(args); break;
 129              		.loc 1 6 22
   6:src/ksyscall.cpp ****         case (0x02): kmem_free(args); break;
 130              		.loc 1 6 32 is_stmt 0
 131 00b8 97000000 		call	_Z10kmem_allocm
 131      E7800000 
 132              	.LVL12:
   6:src/ksyscall.cpp ****         case (0x02): kmem_free(args); break;
 133              		.loc 1 6 49 is_stmt 1
 134 00c0 6FF09FFE 		j	.L5
 135              	.LVL13:
 136              	.L7:
   7:src/ksyscall.cpp ****         default: return;
 137              		.loc 1 7 9
   7:src/ksyscall.cpp ****         default: return;
 138              		.loc 1 7 22
   7:src/ksyscall.cpp ****         default: return;
 139              		.loc 1 7 31 is_stmt 0
 140 00c4 97000000 		call	_Z9kmem_freePv
 140      E7800000 
 141              	.LVL14:
   7:src/ksyscall.cpp ****         default: return;
GAS LISTING /tmp/ccQevoHd.s 			page 4


 142              		.loc 1 7 39 is_stmt 1
 143 00cc 6FF0DFFD 		j	.L5
 144              		.cfi_endproc
 145              	.LFE0:
 147              	.Letext0:
 148              		.file 2 "src/../h/../lib/hw.h"
 149              		.file 3 "src/../h/MemoryAllocator.h"
GAS LISTING /tmp/ccQevoHd.s 			page 5


DEFINED SYMBOLS
                            *ABS*:0000000000000000 ksyscall.cpp
     /tmp/ccQevoHd.s:9      .text:0000000000000000 _Z10kmem_allocm
     /tmp/ccQevoHd.s:13     .text:0000000000000000 .L0 
     /tmp/ccQevoHd.s:15     .text:0000000000000000 .L0 
     /tmp/ccQevoHd.s:16     .text:0000000000000004 .L0 
     /tmp/ccQevoHd.s:20     .text:0000000000000010 .L0 
     /tmp/ccQevoHd.s:21     .text:0000000000000010 .L0 
     /tmp/ccQevoHd.s:22     .text:0000000000000010 .L0 
     /tmp/ccQevoHd.s:24     .text:0000000000000014 .L0 
     /tmp/ccQevoHd.s:27     .text:0000000000000018 .L0 
     /tmp/ccQevoHd.s:28     .text:0000000000000018 .L0 
     /tmp/ccQevoHd.s:34     .text:000000000000002c .L0 
     /tmp/ccQevoHd.s:35     .text:0000000000000030 .L0 
     /tmp/ccQevoHd.s:37     .text:0000000000000034 .L0 
     /tmp/ccQevoHd.s:38     .text:0000000000000034 .L0 
     /tmp/ccQevoHd.s:40     .text:0000000000000038 .L0 
     /tmp/ccQevoHd.s:43     .text:000000000000003c .L0 
     /tmp/ccQevoHd.s:45     .text:0000000000000040 .L0 
     /tmp/ccQevoHd.s:51     .text:0000000000000040 _Z9kmem_freePv
     /tmp/ccQevoHd.s:54     .text:0000000000000040 .L0 
     /tmp/ccQevoHd.s:56     .text:0000000000000040 .L0 
     /tmp/ccQevoHd.s:57     .text:0000000000000044 .L0 
     /tmp/ccQevoHd.s:61     .text:0000000000000050 .L0 
     /tmp/ccQevoHd.s:62     .text:0000000000000050 .L0 
     /tmp/ccQevoHd.s:63     .text:0000000000000050 .L0 
     /tmp/ccQevoHd.s:65     .text:0000000000000054 .L0 
     /tmp/ccQevoHd.s:68     .text:0000000000000058 .L0 
     /tmp/ccQevoHd.s:69     .text:0000000000000058 .L0 
     /tmp/ccQevoHd.s:75     .text:000000000000006c .L0 
     /tmp/ccQevoHd.s:76     .text:0000000000000070 .L0 
     /tmp/ccQevoHd.s:78     .text:0000000000000074 .L0 
     /tmp/ccQevoHd.s:79     .text:0000000000000074 .L0 
     /tmp/ccQevoHd.s:81     .text:0000000000000078 .L0 
     /tmp/ccQevoHd.s:84     .text:000000000000007c .L0 
     /tmp/ccQevoHd.s:86     .text:0000000000000080 .L0 
     /tmp/ccQevoHd.s:92     .text:0000000000000080 handleSupervisorTrap
     /tmp/ccQevoHd.s:95     .text:0000000000000080 .L0 
     /tmp/ccQevoHd.s:97     .text:0000000000000080 .L0 
     /tmp/ccQevoHd.s:98     .text:0000000000000084 .L0 
     /tmp/ccQevoHd.s:101    .text:000000000000008c .L0 
     /tmp/ccQevoHd.s:102    .text:000000000000008c .L0 
     /tmp/ccQevoHd.s:104    .text:0000000000000090 .L0 
     /tmp/ccQevoHd.s:109    .text:0000000000000098 .L0 
     /tmp/ccQevoHd.s:116    .text:00000000000000a8 .L0 
     /tmp/ccQevoHd.s:117    .text:00000000000000ac .L0 
     /tmp/ccQevoHd.s:118    .text:00000000000000ac .L0 
     /tmp/ccQevoHd.s:120    .text:00000000000000b0 .L0 
     /tmp/ccQevoHd.s:121    .text:00000000000000b0 .L0 
     /tmp/ccQevoHd.s:123    .text:00000000000000b4 .L0 
     /tmp/ccQevoHd.s:127    .text:00000000000000b8 .L0 
     /tmp/ccQevoHd.s:129    .text:00000000000000b8 .L0 
     /tmp/ccQevoHd.s:130    .text:00000000000000b8 .L0 
     /tmp/ccQevoHd.s:131    .text:00000000000000b8 .L0 
     /tmp/ccQevoHd.s:134    .text:00000000000000c0 .L0 
     /tmp/ccQevoHd.s:138    .text:00000000000000c4 .L0 
     /tmp/ccQevoHd.s:139    .text:00000000000000c4 .L0 
GAS LISTING /tmp/ccQevoHd.s 			page 6


     /tmp/ccQevoHd.s:140    .text:00000000000000c4 .L0 
     /tmp/ccQevoHd.s:143    .text:00000000000000cc .L0 
     /tmp/ccQevoHd.s:144    .text:00000000000000d0 .L0 
     /tmp/ccQevoHd.s:150    .text:00000000000000d0 .L0 
     /tmp/ccQevoHd.s:126    .text:00000000000000b8 .L6
     /tmp/ccQevoHd.s:136    .text:00000000000000c4 .L7
     /tmp/ccQevoHd.s:114    .text:00000000000000a8 .L5
     /tmp/ccQevoHd.s:525    .debug_abbrev:0000000000000000 .Ldebug_abbrev0
     /tmp/ccQevoHd.s:1093   .debug_str:0000000000000071 .LASF37
     /tmp/ccQevoHd.s:1115   .debug_str:00000000000001d1 .LASF38
     /tmp/ccQevoHd.s:1133   .debug_str:0000000000000240 .LASF39
     /tmp/ccQevoHd.s:5      .text:0000000000000000 .Ltext0
     /tmp/ccQevoHd.s:147    .text:00000000000000d0 .Letext0
     /tmp/ccQevoHd.s:1073   .debug_line:0000000000000000 .Ldebug_line0
     /tmp/ccQevoHd.s:1123   .debug_str:0000000000000206 .LASF3
     /tmp/ccQevoHd.s:1127   .debug_str:0000000000000210 .LASF0
     /tmp/ccQevoHd.s:1113   .debug_str:00000000000001be .LASF1
     /tmp/ccQevoHd.s:1107   .debug_str:0000000000000182 .LASF2
     /tmp/ccQevoHd.s:1087   .debug_str:0000000000000042 .LASF4
     /tmp/ccQevoHd.s:1111   .debug_str:00000000000001ac .LASF5
     /tmp/ccQevoHd.s:1079   .debug_str:0000000000000023 .LASF6
     /tmp/ccQevoHd.s:1075   .debug_str:0000000000000000 .LASF7
     /tmp/ccQevoHd.s:1101   .debug_str:000000000000014b .LASF8
     /tmp/ccQevoHd.s:1137   .debug_str:000000000000029a .LASF9
     /tmp/ccQevoHd.s:1085   .debug_str:0000000000000034 .LASF10
     /tmp/ccQevoHd.s:1171   .debug_str:00000000000003bb .LASF11
     /tmp/ccQevoHd.s:1103   .debug_str:000000000000015e .LASF12
     /tmp/ccQevoHd.s:1161   .debug_str:0000000000000385 .LASF13
     /tmp/ccQevoHd.s:1147   .debug_str:00000000000002e1 .LASF14
     /tmp/ccQevoHd.s:1117   .debug_str:00000000000001e2 .LASF15
     /tmp/ccQevoHd.s:1097   .debug_str:0000000000000130 .LASF16
     /tmp/ccQevoHd.s:1141   .debug_str:00000000000002b4 .LASF17
     /tmp/ccQevoHd.s:1077   .debug_str:0000000000000013 .LASF20
     /tmp/ccQevoHd.s:1089   .debug_str:0000000000000049 .LASF40
     /tmp/ccQevoHd.s:1167   .debug_str:00000000000003af .LASF18
     /tmp/ccQevoHd.s:1081   .debug_str:000000000000002a .LASF19
     /tmp/ccQevoHd.s:1091   .debug_str:0000000000000055 .LASF22
     /tmp/ccQevoHd.s:1165   .debug_str:00000000000003a5 .LASF21
     /tmp/ccQevoHd.s:1109   .debug_str:0000000000000190 .LASF23
     /tmp/ccQevoHd.s:1143   .debug_str:00000000000002ca .LASF41
     /tmp/ccQevoHd.s:1135   .debug_str:0000000000000276 .LASF42
     /tmp/ccQevoHd.s:1169   .debug_str:00000000000003b4 .LASF24
     /tmp/ccQevoHd.s:1155   .debug_str:000000000000032b .LASF25
     /tmp/ccQevoHd.s:1149   .debug_str:00000000000002f1 .LASF26
     /tmp/ccQevoHd.s:1095   .debug_str:0000000000000113 .LASF27
     /tmp/ccQevoHd.s:1121   .debug_str:00000000000001fa .LASF28
     /tmp/ccQevoHd.s:1119   .debug_str:00000000000001ee .LASF29
     /tmp/ccQevoHd.s:1151   .debug_str:00000000000002f6 .LASF43
     /tmp/ccQevoHd.s:1129   .debug_str:000000000000021d .LASF44
     /tmp/ccQevoHd.s:1153   .debug_str:00000000000002ff .LASF45
     /tmp/ccQevoHd.s:1159   .debug_str:000000000000037b .LASF46
     /tmp/ccQevoHd.s:1157   .debug_str:0000000000000349 .LASF47
     /tmp/ccQevoHd.s:1139   .debug_str:00000000000002aa .LASF30
     /tmp/ccQevoHd.s:1131   .debug_str:0000000000000231 .LASF32
     /tmp/ccQevoHd.s:52     .text:0000000000000040 .LFB2
     /tmp/ccQevoHd.s:87     .text:0000000000000080 .LFE2
     /tmp/ccQevoHd.s:1099   .debug_str:0000000000000146 .LASF34
GAS LISTING /tmp/ccQevoHd.s 			page 7


     /tmp/ccQevoHd.s:974    .debug_loc:0000000000000000 .LLST1
     /tmp/ccQevoHd.s:70     .text:0000000000000060 .LVL5
     /tmp/ccQevoHd.s:73     .text:000000000000006c .LVL6
     /tmp/ccQevoHd.s:1145   .debug_str:00000000000002d6 .LASF31
     /tmp/ccQevoHd.s:1163   .debug_str:0000000000000395 .LASF33
     /tmp/ccQevoHd.s:10     .text:0000000000000000 .LFB1
     /tmp/ccQevoHd.s:46     .text:0000000000000040 .LFE1
     /tmp/ccQevoHd.s:992    .debug_loc:000000000000004c .LLST0
     /tmp/ccQevoHd.s:29     .text:0000000000000020 .LVL1
     /tmp/ccQevoHd.s:32     .text:000000000000002c .LVL2
     /tmp/ccQevoHd.s:1105   .debug_str:000000000000016d .LASF48
     /tmp/ccQevoHd.s:93     .text:0000000000000080 .LFB0
     /tmp/ccQevoHd.s:145    .text:00000000000000d0 .LFE0
     /tmp/ccQevoHd.s:1125   .debug_str:000000000000020b .LASF35
     /tmp/ccQevoHd.s:1010   .debug_loc:0000000000000098 .LLST2
     /tmp/ccQevoHd.s:1083   .debug_str:000000000000002f .LASF36
     /tmp/ccQevoHd.s:1024   .debug_loc:00000000000000d1 .LLST3
     /tmp/ccQevoHd.s:132    .text:00000000000000c0 .LVL12
     /tmp/ccQevoHd.s:141    .text:00000000000000cc .LVL14
     /tmp/ccQevoHd.s:55     .text:0000000000000040 .LVL4
     /tmp/ccQevoHd.s:82     .text:0000000000000078 .LVL7
     /tmp/ccQevoHd.s:14     .text:0000000000000000 .LVL0
     /tmp/ccQevoHd.s:41     .text:0000000000000038 .LVL3
     /tmp/ccQevoHd.s:96     .text:0000000000000080 .LVL8
     /tmp/ccQevoHd.s:107    .text:0000000000000098 .LVL9
     /tmp/ccQevoHd.s:113    .text:00000000000000a8 .LVL10
     /tmp/ccQevoHd.s:125    .text:00000000000000b8 .LVL11
     /tmp/ccQevoHd.s:135    .text:00000000000000c4 .LVL13
     /tmp/ccQevoHd.s:151    .debug_info:0000000000000000 .Ldebug_info0

UNDEFINED SYMBOLS
_ZN15MemoryAllocator11getInstanceEv
_ZN15MemoryAllocator6mallocEm
_ZN15MemoryAllocator4freeEPv
