GAS LISTING /tmp/ccQevoHd.s 			page 1


   1              		.file	"ksyscall.cpp"
   2              		.option pic
   3              		.option norelax
   4              		.text
   5              	.Ltext0:
   6              		.align	2
   7              		.globl	_Z10kmem_allocm
   9              	_Z10kmem_allocm:
  10              	.LFB1:
  11              		.file 1 "src/ksyscall.cpp"
   1:src/ksyscall.cpp **** #include "../h/ksyscall_cpp.h"
   2:src/ksyscall.cpp **** #include "../h/MemoryAllocator.h"
   3:src/ksyscall.cpp **** 
   4:src/ksyscall.cpp **** void handleSupervisorTrap(uint code, void *args) {
   5:src/ksyscall.cpp ****     switch (code) {
   6:src/ksyscall.cpp ****         case (0x01): kmem_alloc((size_t) args); break;
   7:src/ksyscall.cpp ****         case (0x02): kmem_free(args); break;
   8:src/ksyscall.cpp ****         default: return;
   9:src/ksyscall.cpp ****     }
  10:src/ksyscall.cpp **** }
  11:src/ksyscall.cpp **** 
  12:src/ksyscall.cpp **** void *kmem_alloc(size_t size) {
  12              		.loc 1 12 31
  13              		.cfi_startproc
  14              	.LVL0:
  15 0000 130101FE 		addi	sp,sp,-32
  16              		.cfi_def_cfa_offset 32
  17 0004 233C1100 		sd	ra,24(sp)
  18 0008 23388100 		sd	s0,16(sp)
  19 000c 23349100 		sd	s1,8(sp)
  20              		.cfi_offset 1, -8
  21              		.cfi_offset 8, -16
  22              		.cfi_offset 9, -24
  23 0010 13040102 		addi	s0,sp,32
  24              		.cfi_def_cfa 8, 0
  25 0014 93040500 		mv	s1,a0
  13:src/ksyscall.cpp ****     return MemoryAllocator::getInstance()->malloc(size);
  26              		.loc 1 13 5
  27              		.loc 1 13 50 is_stmt 0
  28 0018 97000000 		call	_ZN15MemoryAllocator11getInstanceEv@plt
  28      E7800000 
  29              	.LVL1:
  30 0020 93850400 		mv	a1,s1
  31 0024 97000000 		call	_ZN15MemoryAllocator6mallocEm@plt
  31      E7800000 
  32              	.LVL2:
  14:src/ksyscall.cpp **** }
  33              		.loc 1 14 1
  34 002c 83308101 		ld	ra,24(sp)
  35              		.cfi_restore 1
  36 0030 03340101 		ld	s0,16(sp)
  37              		.cfi_restore 8
  38              		.cfi_def_cfa 2, 32
  39 0034 83348100 		ld	s1,8(sp)
  40              		.cfi_restore 9
  41              	.LVL3:
  42 0038 13010102 		addi	sp,sp,32
GAS LISTING /tmp/ccQevoHd.s 			page 2


  43              		.cfi_def_cfa_offset 0
  44 003c 67800000 		jr	ra
  45              		.cfi_endproc
  46              	.LFE1:
  48              		.align	2
  49              		.globl	_Z9kmem_freePv
  51              	_Z9kmem_freePv:
  52              	.LFB2:
  15:src/ksyscall.cpp **** 
  16:src/ksyscall.cpp **** int kmem_free(void *addr) {
  53              		.loc 1 16 27 is_stmt 1
  54              		.cfi_startproc
  55              	.LVL4:
  56 0040 130101FE 		addi	sp,sp,-32
  57              		.cfi_def_cfa_offset 32
  58 0044 233C1100 		sd	ra,24(sp)
  59 0048 23388100 		sd	s0,16(sp)
  60 004c 23349100 		sd	s1,8(sp)
  61              		.cfi_offset 1, -8
  62              		.cfi_offset 8, -16
  63              		.cfi_offset 9, -24
  64 0050 13040102 		addi	s0,sp,32
  65              		.cfi_def_cfa 8, 0
  66 0054 93040500 		mv	s1,a0
  17:src/ksyscall.cpp ****     return MemoryAllocator::getInstance()->free(addr);
  67              		.loc 1 17 5
  68              		.loc 1 17 48 is_stmt 0
  69 0058 97000000 		call	_ZN15MemoryAllocator11getInstanceEv@plt
  69      E7800000 
  70              	.LVL5:
  71 0060 93850400 		mv	a1,s1
  72 0064 97000000 		call	_ZN15MemoryAllocator4freeEPv@plt
  72      E7800000 
  73              	.LVL6:
  18:src/ksyscall.cpp **** }
  74              		.loc 1 18 1
  75 006c 83308101 		ld	ra,24(sp)
  76              		.cfi_restore 1
  77 0070 03340101 		ld	s0,16(sp)
  78              		.cfi_restore 8
  79              		.cfi_def_cfa 2, 32
  80 0074 83348100 		ld	s1,8(sp)
  81              		.cfi_restore 9
  82              	.LVL7:
  83 0078 13010102 		addi	sp,sp,32
  84              		.cfi_def_cfa_offset 0
  85 007c 67800000 		jr	ra
  86              		.cfi_endproc
  87              	.LFE2:
  89              		.align	2
  90              		.globl	handleSupervisorTrap
  92              	handleSupervisorTrap:
  93              	.LFB0:
   4:src/ksyscall.cpp ****     switch (code) {
  94              		.loc 1 4 50 is_stmt 1
  95              		.cfi_startproc
  96              	.LVL8:
GAS LISTING /tmp/ccQevoHd.s 			page 3


  97 0080 130101FF 		addi	sp,sp,-16
  98              		.cfi_def_cfa_offset 16
  99 0084 23341100 		sd	ra,8(sp)
 100 0088 23308100 		sd	s0,0(sp)
 101              		.cfi_offset 1, -8
 102              		.cfi_offset 8, -16
 103 008c 13040101 		addi	s0,sp,16
 104              		.cfi_def_cfa 8, 0
 105 0090 93070500 		mv	a5,a0
 106 0094 13850500 		mv	a0,a1
 107              	.LVL9:
   5:src/ksyscall.cpp ****         case (0x01): kmem_alloc((size_t) args); break;
 108              		.loc 1 5 5
 109 0098 13071000 		li	a4,1
 110 009c 638EE700 		beq	a5,a4,.L6
 111 00a0 13072000 		li	a4,2
 112 00a4 6380E702 		beq	a5,a4,.L7
 113              	.LVL10:
 114              	.L5:
  10:src/ksyscall.cpp **** 
 115              		.loc 1 10 1 is_stmt 0
 116 00a8 83308100 		ld	ra,8(sp)
 117              		.cfi_remember_state
 118              		.cfi_restore 1
 119 00ac 03340100 		ld	s0,0(sp)
 120              		.cfi_restore 8
 121              		.cfi_def_cfa 2, 16
 122 00b0 13010101 		addi	sp,sp,16
 123              		.cfi_def_cfa_offset 0
 124 00b4 67800000 		jr	ra
 125              	.LVL11:
 126              	.L6:
 127              		.cfi_restore_state
   6:src/ksyscall.cpp ****         case (0x02): kmem_free(args); break;
 128              		.loc 1 6 9 is_stmt 1
   6:src/ksyscall.cpp ****         case (0x02): kmem_free(args); break;
 129              		.loc 1 6 22
   6:src/ksyscall.cpp ****         case (0x02): kmem_free(args); break;
 130              		.loc 1 6 32 is_stmt 0
 131 00b8 97000000 		call	_Z10kmem_allocm
 131      E7800000 
 132              	.LVL12:
   6:src/ksyscall.cpp ****         case (0x02): kmem_free(args); break;
 133              		.loc 1 6 49 is_stmt 1
 134 00c0 6FF09FFE 		j	.L5
 135              	.LVL13:
 136              	.L7:
   7:src/ksyscall.cpp ****         default: return;
 137              		.loc 1 7 9
   7:src/ksyscall.cpp ****         default: return;
 138              		.loc 1 7 22
   7:src/ksyscall.cpp ****         default: return;
 139              		.loc 1 7 31 is_stmt 0
 140 00c4 97000000 		call	_Z9kmem_freePv
 140      E7800000 
 141              	.LVL14:
   7:src/ksyscall.cpp ****         default: return;
GAS LISTING /tmp/ccQevoHd.s 			page 4


 142              		.loc 1 7 39 is_stmt 1
 143 00cc 6FF0DFFD 		j	.L5
 144              		.cfi_endproc
 145              	.LFE0:
 147              	.Letext0:
 148              		.file 2 "src/../h/../lib/hw.h"
 149              		.file 3 "src/../h/MemoryAllocator.h"
GAS LISTING /tmp/ccQevoHd.s 			page 5

