GAS LISTING /tmp/ccvRqMu4.s 			page 1


   1              		.file	"main.cpp"
   2              		.option pic
   3              		.option norelax
   4              		.text
   5              	.Ltext0:
   6              		.align	2
   8              	_ZZ4mainENUlPvE_4_FUNES_:
   9              	.LFB108:
  10              		.file 1 "src/main.cpp"
   1:src/main.cpp  **** #include "../h/TCB.h"
   2:src/main.cpp  **** #include "../h/Riscv.h"
   3:src/main.cpp  **** #include "../h/TimerInterrupt.h"
   4:src/main.cpp  **** #include "../h/SysPrint.h"
   5:src/main.cpp  **** #include "../h/Scheduler.h"
   6:src/main.cpp  **** #include "../h/ThreadCollector.h"
   7:src/main.cpp  **** #include "../h/IdleThread.h"
   8:src/main.cpp  **** 
   9:src/main.cpp  **** void userMain();
  10:src/main.cpp  **** 
  11:src/main.cpp  **** int main() {
  12:src/main.cpp  ****     kprintString("Starting main\n");
  13:src/main.cpp  ****     TCB *main = TCB::createKernelThread();
  14:src/main.cpp  ****     kprintString("Created main thread\n");
  15:src/main.cpp  ****     TCB::running = main;
  16:src/main.cpp  **** 
  17:src/main.cpp  ****     TCB *uMain = TCB::createUserThread([](void *){userMain();}, nullptr);
  11              		.loc 1 17 40
  12              		.cfi_startproc
  13 0000 130101FF 		addi	sp,sp,-16
  14              		.cfi_def_cfa_offset 16
  15 0004 23341100 		sd	ra,8(sp)
  16 0008 23308100 		sd	s0,0(sp)
  17              		.cfi_offset 1, -8
  18              		.cfi_offset 8, -16
  19 000c 13040101 		addi	s0,sp,16
  20              		.cfi_def_cfa 8, 0
  21              	.LVL0:
  22              	.LBB22:
  23              	.LBB23:
  24              		.loc 1 17 51
  25              		.loc 1 17 59 is_stmt 0
  26 0010 97000000 		call	_Z8userMainv@plt
  26      E7800000 
  27              	.LVL1:
  28              	.LBE23:
  29              	.LBE22:
  30              		.loc 1 17 62
  31 0018 83308100 		ld	ra,8(sp)
  32              		.cfi_restore 1
  33 001c 03340100 		ld	s0,0(sp)
  34              		.cfi_restore 8
  35              		.cfi_def_cfa 2, 16
  36 0020 13010101 		addi	sp,sp,16
  37              		.cfi_def_cfa_offset 0
  38 0024 67800000 		jr	ra
  39              		.cfi_endproc
  40              	.LFE108:
GAS LISTING /tmp/ccvRqMu4.s 			page 2


  42              		.section	.rodata.str1.8,"aMS",@progbits,1
  43              		.align	3
  44              	.LC0:
  45 0000 53746172 		.string	"Starting main\n"
  45      74696E67 
  45      206D6169 
  45      6E0A00
  46 000f 00       		.align	3
  47              	.LC1:
  48 0010 43726561 		.string	"Created main thread\n"
  48      74656420 
  48      6D61696E 
  48      20746872 
  48      6561640A 
  49 0025 000000   		.align	3
  50              	.LC2:
  51 0028 43726561 		.string	"Created user main thread\n"
  51      74656420 
  51      75736572 
  51      206D6169 
  51      6E207468 
  52 0042 00000000 		.align	3
  52      0000
  53              	.LC3:
  54 0048 4D61696E 		.string	"Main finished\n"
  54      2066696E 
  54      69736865 
  54      640A00
  55              		.text
  56              		.align	2
  57              		.globl	main
  59              	main:
  60              	.LFB106:
  11:src/main.cpp  ****     kprintString("Starting main\n");
  61              		.loc 1 11 12 is_stmt 1
  62              		.cfi_startproc
  63              		.cfi_personality 0x9b,DW.ref.__gxx_personality_v0
  64              		.cfi_lsda 0x1b,.LLSDA106
  65 0028 130101FE 		addi	sp,sp,-32
  66              		.cfi_def_cfa_offset 32
  67 002c 233C1100 		sd	ra,24(sp)
  68 0030 23388100 		sd	s0,16(sp)
  69 0034 23349100 		sd	s1,8(sp)
  70 0038 23302101 		sd	s2,0(sp)
  71              		.cfi_offset 1, -8
  72              		.cfi_offset 8, -16
  73              		.cfi_offset 9, -24
  74              		.cfi_offset 18, -32
  75 003c 13040102 		addi	s0,sp,32
  76              		.cfi_def_cfa 8, 0
  12:src/main.cpp  ****     TCB *main = TCB::createKernelThread();
  77              		.loc 1 12 5
  12:src/main.cpp  ****     TCB *main = TCB::createKernelThread();
  78              		.loc 1 12 17 is_stmt 0
  79 0040 17050000 		lla	a0,.LC0
  79      13050500 
  80              	.LEHB0:
GAS LISTING /tmp/ccvRqMu4.s 			page 3


  81 0048 97000000 		call	_Z12kprintStringPKc@plt
  81      E7800000 
  82              	.LVL2:
  13:src/main.cpp  ****     kprintString("Created main thread\n");
  83              		.loc 1 13 5 is_stmt 1
  84              	.LBB43:
  85              	.LBB44:
  86              		.file 2 "src/../h/TCB.h"
   1:src/../h/TCB.h **** //
   2:src/../h/TCB.h **** // Created by xparh on 4/24/2022.
   3:src/../h/TCB.h **** //
   4:src/../h/TCB.h **** 
   5:src/../h/TCB.h **** #ifndef OS1_VEZBE07_RISCV_CONTEXT_SWITCH_1_SYNCHRONOUS_TCB_H
   6:src/../h/TCB.h **** #define OS1_VEZBE07_RISCV_CONTEXT_SWITCH_1_SYNCHRONOUS_TCB_H
   7:src/../h/TCB.h **** 
   8:src/../h/TCB.h **** #include "../lib/hw.h"
   9:src/../h/TCB.h **** #include "KernelObject.h"
  10:src/../h/TCB.h **** #include "List.h"
  11:src/../h/TCB.h **** #include "Mutex.h"
  12:src/../h/TCB.h **** #include "ThreadNode.h"
  13:src/../h/TCB.h **** #include "ThreadList.h"
  14:src/../h/TCB.h **** 
  15:src/../h/TCB.h **** // Thread Control Block
  16:src/../h/TCB.h **** class TCB : public KernelObject {
  17:src/../h/TCB.h **** public:
  18:src/../h/TCB.h ****     using Body = void (*)(void *);
  19:src/../h/TCB.h **** 
  20:src/../h/TCB.h ****     static TCB *createKernelThread(Body body, void *args);
  21:src/../h/TCB.h **** 
  22:src/../h/TCB.h ****     static TCB *createKernelThread(Body body, void *args, uint64 *threadStack);
  23:src/../h/TCB.h **** 
  24:src/../h/TCB.h ****     static TCB *createUserThread(Body body, void *args);
  25:src/../h/TCB.h **** 
  26:src/../h/TCB.h ****     static TCB *createUserThread(Body body, void *args, uint64 *threadStack);
  27:src/../h/TCB.h **** 
  28:src/../h/TCB.h ****     int join();
  29:src/../h/TCB.h **** 
  30:src/../h/TCB.h ****     static void yield() {
  31:src/../h/TCB.h ****         __asm__ volatile ("ecall");
  32:src/../h/TCB.h ****     }
  33:src/../h/TCB.h **** 
  34:src/../h/TCB.h ****     static void dispatch();
  35:src/../h/TCB.h **** 
  36:src/../h/TCB.h ****     static void exit();
  37:src/../h/TCB.h **** 
  38:src/../h/TCB.h ****     bool isBlocked() const {
  39:src/../h/TCB.h ****         return status == BLOCKED;
  40:src/../h/TCB.h ****     }
  41:src/../h/TCB.h **** 
  42:src/../h/TCB.h ****     void setBlocked() {
  43:src/../h/TCB.h ****         status = BLOCKED;
  44:src/../h/TCB.h ****     }
  45:src/../h/TCB.h **** 
  46:src/../h/TCB.h ****     bool isReady() const {
  47:src/../h/TCB.h ****         return status == READY;
  48:src/../h/TCB.h ****     }
  49:src/../h/TCB.h **** 
GAS LISTING /tmp/ccvRqMu4.s 			page 4


  50:src/../h/TCB.h ****     void setReady() {
  51:src/../h/TCB.h ****         status = READY;
  52:src/../h/TCB.h ****     }
  53:src/../h/TCB.h **** 
  54:src/../h/TCB.h ****     bool isFinished() const {
  55:src/../h/TCB.h ****         return status == FINISHED;
  56:src/../h/TCB.h ****     }
  57:src/../h/TCB.h **** 
  58:src/../h/TCB.h ****     void setFinished() {
  59:src/../h/TCB.h ****         status = FINISHED;
  60:src/../h/TCB.h ****     }
  61:src/../h/TCB.h **** 
  62:src/../h/TCB.h ****     bool isIdle() const {
  63:src/../h/TCB.h ****         return status == IDLE;
  64:src/../h/TCB.h ****     }
  65:src/../h/TCB.h **** 
  66:src/../h/TCB.h ****     void setIdle() {
  67:src/../h/TCB.h ****         status = IDLE;
  68:src/../h/TCB.h ****     }
  69:src/../h/TCB.h **** 
  70:src/../h/TCB.h ****     uint64 getTimeSlice() const {
  71:src/../h/TCB.h ****         return timeSlice;
  72:src/../h/TCB.h ****     }
  73:src/../h/TCB.h **** 
  74:src/../h/TCB.h ****     time_t getBlockedTime() const {
  75:src/../h/TCB.h ****         return blockedTime;
  76:src/../h/TCB.h ****     }
  77:src/../h/TCB.h **** 
  78:src/../h/TCB.h ****     void setBlockedTime(time_t blockedTime) {
  79:src/../h/TCB.h ****         this->blockedTime = blockedTime;
  80:src/../h/TCB.h ****     }
  81:src/../h/TCB.h **** 
  82:src/../h/TCB.h ****     void decBlockedTime(time_t time = 1) {
  83:src/../h/TCB.h ****         this->blockedTime -= time;
  84:src/../h/TCB.h ****     }
  85:src/../h/TCB.h **** 
  86:src/../h/TCB.h ****     const Mutex *getMutex() const {
  87:src/../h/TCB.h ****         return &mutex;
  88:src/../h/TCB.h ****     }
  89:src/../h/TCB.h **** 
  90:src/../h/TCB.h ****     uint64 getSsp() const {
  91:src/../h/TCB.h ****         return ssp;
  92:src/../h/TCB.h ****     }
  93:src/../h/TCB.h **** 
  94:src/../h/TCB.h ****     uint64 getSavedContext() const {
  95:src/../h/TCB.h ****         return (uint64) (kernelStack + DEFAULT_STACK_SIZE - 32);
  96:src/../h/TCB.h ****     }
  97:src/../h/TCB.h **** 
  98:src/../h/TCB.h ****     uint64 *getThreadStack() const {
  99:src/../h/TCB.h ****         return threadStack;
 100:src/../h/TCB.h ****     };
 101:src/../h/TCB.h **** 
 102:src/../h/TCB.h ****     ThreadNode *getNode() {
 103:src/../h/TCB.h ****         return &node;
 104:src/../h/TCB.h ****     }
 105:src/../h/TCB.h **** 
 106:src/../h/TCB.h ****     static TCB *createKernelThread() {
GAS LISTING /tmp/ccvRqMu4.s 			page 5


 107:src/../h/TCB.h ****         return new TCB();
  87              		.loc 2 107 9
  88              	.LBB45:
  89              	.LBB46:
  90              		.file 3 "src/../h/KernelObject.h"
   1:src/../h/KernelObject.h **** #ifndef _KERNEL_OBJECT_H
   2:src/../h/KernelObject.h **** #define _KERNEL_OBJECT_H
   3:src/../h/KernelObject.h **** 
   4:src/../h/KernelObject.h **** #include "MemoryAllocator.h"
   5:src/../h/KernelObject.h **** 
   6:src/../h/KernelObject.h **** class KernelObject {
   7:src/../h/KernelObject.h **** public:
   8:src/../h/KernelObject.h ****     static void *operator new(size_t size) {
   9:src/../h/KernelObject.h ****         size = (size - 1) / MEM_BLOCK_SIZE + 1;
  91              		.loc 3 9 9
  10:src/../h/KernelObject.h ****         return kmalloc(size);
  92              		.loc 3 10 9
  93              		.loc 3 10 23 is_stmt 0
  94 0050 13053000 		li	a0,3
  95 0054 97000000 		call	_Z7kmallocm@plt
  95      E7800000 
  96              	.LVL3:
  97              	.LEHE0:
  98 005c 93040500 		mv	s1,a0
  99              	.LVL4:
 100              	.LEHB1:
 101              	.LBE46:
 102              	.LBE45:
 103 0060 97000000 		call	_ZN3TCBC1Ev@plt
 103      E7800000 
 104              	.LVL5:
 105              	.LEHE1:
 106              	.LBE44:
 107              	.LBE43:
  14:src/main.cpp  ****     TCB::running = main;
 108              		.loc 1 14 5 is_stmt 1
  14:src/main.cpp  ****     TCB::running = main;
 109              		.loc 1 14 17 is_stmt 0
 110 0068 17050000 		lla	a0,.LC1
 110      13050500 
 111              	.LEHB2:
 112 0070 97000000 		call	_Z12kprintStringPKc@plt
 112      E7800000 
 113              	.LVL6:
  15:src/main.cpp  **** 
 114              		.loc 1 15 5 is_stmt 1
  15:src/main.cpp  **** 
 115              		.loc 1 15 18 is_stmt 0
 116 0078 97070000 		la	a5,_ZN3TCB7runningE
 116      83B70700 
 117 0080 23B09700 		sd	s1,0(a5)
 118              		.loc 1 17 5 is_stmt 1
 119              	.LVL7:
 120              		.loc 1 17 39 is_stmt 0
 121 0084 93050000 		li	a1,0
 122 0088 17050000 		lla	a0,_ZZ4mainENUlPvE_4_FUNES_
 122      13050500 
GAS LISTING /tmp/ccvRqMu4.s 			page 6


 123 0090 97000000 		call	_ZN3TCB16createUserThreadEPFvPvES0_@plt
 123      E7800000 
 124              	.LVL8:
 125 0098 93040500 		mv	s1,a0
 126              	.LVL9:
  18:src/main.cpp  ****     kprintString("Created user main thread\n");
 127              		.loc 1 18 5 is_stmt 1
 128              		.loc 1 18 17 is_stmt 0
 129 009c 17050000 		lla	a0,.LC2
 129      13050500 
 130 00a4 97000000 		call	_Z12kprintStringPKc@plt
 130      E7800000 
 131              	.LVL10:
  19:src/main.cpp  **** 
  20:src/main.cpp  ****     Riscv::w_stvec((uint64) &Riscv::supervisorTrap);
 132              		.loc 1 20 5 is_stmt 1
 133              		.loc 1 20 19 is_stmt 0
 134 00ac 97070000 		la	a5,_ZN5Riscv14supervisorTrapEv
 134      83B70700 
 135              	.LVL11:
 136              	.LBB50:
 137              	.LBB51:
 138              		.file 4 "src/../h/Riscv.h"
   1:src/../h/Riscv.h **** #ifndef _RISCV_H
   2:src/../h/Riscv.h **** #define _RISCV_H
   3:src/../h/Riscv.h **** 
   4:src/../h/Riscv.h **** #include "../lib/hw.h"
   5:src/../h/Riscv.h **** 
   6:src/../h/Riscv.h **** #define lock()                  \
   7:src/../h/Riscv.h ****     volatile uint64 sstatus = Riscv::r_sstatus(); \
   8:src/../h/Riscv.h ****     Riscv::disableInterrupts(); \
   9:src/../h/Riscv.h **** 
  10:src/../h/Riscv.h **** #define unlock()                \
  11:src/../h/Riscv.h ****     Riscv::w_sstatus(sstatus);  \
  12:src/../h/Riscv.h **** 
  13:src/../h/Riscv.h **** 
  14:src/../h/Riscv.h **** class Riscv {
  15:src/../h/Riscv.h **** public:
  16:src/../h/Riscv.h **** 
  17:src/../h/Riscv.h ****     // disables interrupts
  18:src/../h/Riscv.h ****     static void disableInterrupts();
  19:src/../h/Riscv.h **** 
  20:src/../h/Riscv.h ****     // enables interrupts
  21:src/../h/Riscv.h ****     static void enableInterrupts();
  22:src/../h/Riscv.h **** 
  23:src/../h/Riscv.h ****     // pop sstatus.spp and sstatus.spie bits (has to be a non inline function)
  24:src/../h/Riscv.h ****     static void popSppSpie(bool prMode);
  25:src/../h/Riscv.h **** 
  26:src/../h/Riscv.h ****     // push a0 to saved contex
  27:src/../h/Riscv.h ****     static void pushRegisterA0(uint64 context);
  28:src/../h/Riscv.h **** 
  29:src/../h/Riscv.h ****     // push a1 to saved contex
  30:src/../h/Riscv.h ****     static void pushRegisterA1(uint64 context);
  31:src/../h/Riscv.h **** 
  32:src/../h/Riscv.h ****     // read register sp
  33:src/../h/Riscv.h ****     static uint64 r_sp();
  34:src/../h/Riscv.h **** 
GAS LISTING /tmp/ccvRqMu4.s 			page 7


  35:src/../h/Riscv.h ****     // write register sp
  36:src/../h/Riscv.h ****     static void w_sp(uint64 sp);
  37:src/../h/Riscv.h **** 
  38:src/../h/Riscv.h ****     // read old frame pointer
  39:src/../h/Riscv.h ****     static uint64 r_ps0();
  40:src/../h/Riscv.h **** 
  41:src/../h/Riscv.h ****     // read frame pointer
  42:src/../h/Riscv.h ****     static uint64 r_s0();
  43:src/../h/Riscv.h **** 
  44:src/../h/Riscv.h ****     // read register a0
  45:src/../h/Riscv.h ****     static uint64 r_a0();
  46:src/../h/Riscv.h **** 
  47:src/../h/Riscv.h ****     // write register a0
  48:src/../h/Riscv.h ****     static void w_a0(uint64 a0);
  49:src/../h/Riscv.h **** 
  50:src/../h/Riscv.h ****     // read register a1
  51:src/../h/Riscv.h ****     static uint64 r_a1();
  52:src/../h/Riscv.h **** 
  53:src/../h/Riscv.h ****     // write register a1
  54:src/../h/Riscv.h ****     static void w_a1(uint64 a1);
  55:src/../h/Riscv.h **** 
  56:src/../h/Riscv.h ****     // read register a2
  57:src/../h/Riscv.h ****     static uint64 r_a2();
  58:src/../h/Riscv.h **** 
  59:src/../h/Riscv.h ****     // write register a2
  60:src/../h/Riscv.h ****     static void w_a2(uint64 a2);
  61:src/../h/Riscv.h **** 
  62:src/../h/Riscv.h ****     // read register scause
  63:src/../h/Riscv.h ****     static uint64 r_scause();
  64:src/../h/Riscv.h **** 
  65:src/../h/Riscv.h ****     // write register scause
  66:src/../h/Riscv.h ****     static void w_scause(uint64 scause);
  67:src/../h/Riscv.h **** 
  68:src/../h/Riscv.h ****     // read register sepc
  69:src/../h/Riscv.h ****     static uint64 r_sepc();
  70:src/../h/Riscv.h **** 
  71:src/../h/Riscv.h ****     // write register sepc
  72:src/../h/Riscv.h ****     static void w_sepc(uint64 sepc);
  73:src/../h/Riscv.h **** 
  74:src/../h/Riscv.h ****     // read register stvec
  75:src/../h/Riscv.h ****     static uint64 r_stvec();
  76:src/../h/Riscv.h **** 
  77:src/../h/Riscv.h ****     // write register stvec
  78:src/../h/Riscv.h ****     static void w_stvec(uint64 stvec);
  79:src/../h/Riscv.h **** 
  80:src/../h/Riscv.h ****     // read register stval
  81:src/../h/Riscv.h ****     static uint64 r_stval();
  82:src/../h/Riscv.h **** 
  83:src/../h/Riscv.h ****     // write register stval
  84:src/../h/Riscv.h ****     static void w_stval(uint64 stval);
  85:src/../h/Riscv.h **** 
  86:src/../h/Riscv.h ****     enum BitMaskSip {
  87:src/../h/Riscv.h ****         SIP_SSIP = (1 << 1),
  88:src/../h/Riscv.h ****         SIP_STIP = (1 << 5),
  89:src/../h/Riscv.h ****         SIP_SEIP = (1 << 9)
  90:src/../h/Riscv.h ****     };
  91:src/../h/Riscv.h **** 
GAS LISTING /tmp/ccvRqMu4.s 			page 8


  92:src/../h/Riscv.h ****     // mask set register sip
  93:src/../h/Riscv.h ****     static void ms_sip(uint64 mask);
  94:src/../h/Riscv.h **** 
  95:src/../h/Riscv.h ****     // mask clear register sip
  96:src/../h/Riscv.h ****     static void mc_sip(uint64 mask);
  97:src/../h/Riscv.h **** 
  98:src/../h/Riscv.h ****     // read register sip
  99:src/../h/Riscv.h ****     static uint64 r_sip();
 100:src/../h/Riscv.h **** 
 101:src/../h/Riscv.h ****     // write register sip
 102:src/../h/Riscv.h ****     static void w_sip(uint64 sip);
 103:src/../h/Riscv.h **** 
 104:src/../h/Riscv.h ****     enum BitMaskSstatus {
 105:src/../h/Riscv.h ****         SSTATUS_SIE = (1 << 1),
 106:src/../h/Riscv.h ****         SSTATUS_SPIE = (1 << 5),
 107:src/../h/Riscv.h ****         SSTATUS_SPP = (1 << 8)
 108:src/../h/Riscv.h ****     };
 109:src/../h/Riscv.h **** 
 110:src/../h/Riscv.h ****     // mask set register sstatus
 111:src/../h/Riscv.h ****     static void ms_sstatus(uint64 mask);
 112:src/../h/Riscv.h **** 
 113:src/../h/Riscv.h ****     // mask clear register sstatus
 114:src/../h/Riscv.h ****     static void mc_sstatus(uint64 mask);
 115:src/../h/Riscv.h **** 
 116:src/../h/Riscv.h ****     // read register sstatus
 117:src/../h/Riscv.h ****     static uint64 r_sstatus();
 118:src/../h/Riscv.h **** 
 119:src/../h/Riscv.h ****     // write register sstatus
 120:src/../h/Riscv.h ****     static void w_sstatus(uint64 sstatus);
 121:src/../h/Riscv.h **** 
 122:src/../h/Riscv.h ****     // supervisor trap
 123:src/../h/Riscv.h ****     static void supervisorTrap();
 124:src/../h/Riscv.h **** 
 125:src/../h/Riscv.h **** private:
 126:src/../h/Riscv.h ****     // supervisor trap handler
 127:src/../h/Riscv.h ****     static void handleSupervisorTrap();
 128:src/../h/Riscv.h **** };
 129:src/../h/Riscv.h **** 
 130:src/../h/Riscv.h **** 
 131:src/../h/Riscv.h **** inline uint64 Riscv::r_sp() {
 132:src/../h/Riscv.h ****     uint64 volatile sp;
 133:src/../h/Riscv.h ****     __asm__ volatile ("mv %[sp], sp" : [sp] "=r"(sp));
 134:src/../h/Riscv.h ****     return sp;
 135:src/../h/Riscv.h **** }
 136:src/../h/Riscv.h **** 
 137:src/../h/Riscv.h **** inline void Riscv::w_sp(uint64 sp) {
 138:src/../h/Riscv.h ****     __asm__ volatile ("mv sp, %[sp]" : : [sp] "r"(sp));
 139:src/../h/Riscv.h **** }
 140:src/../h/Riscv.h **** 
 141:src/../h/Riscv.h **** inline uint64 Riscv::r_ps0() {
 142:src/../h/Riscv.h ****     uint64 volatile ps0, s0 = r_s0() - 8;
 143:src/../h/Riscv.h ****     __asm__ volatile ("mv %[ps0], %[s0]" : [ps0] "=r"(ps0) : [s0] "r"(s0));
 144:src/../h/Riscv.h ****     return ps0;
 145:src/../h/Riscv.h **** }
 146:src/../h/Riscv.h **** 
 147:src/../h/Riscv.h **** inline uint64 Riscv::r_s0() {
 148:src/../h/Riscv.h ****     uint64 volatile s0;
GAS LISTING /tmp/ccvRqMu4.s 			page 9


 149:src/../h/Riscv.h ****     __asm__ volatile ("mv %[s0], s0" : [s0] "=r"(s0));
 150:src/../h/Riscv.h ****     return s0;
 151:src/../h/Riscv.h **** }
 152:src/../h/Riscv.h **** 
 153:src/../h/Riscv.h **** inline uint64 Riscv::r_a0() {
 154:src/../h/Riscv.h ****     uint64 volatile a0;
 155:src/../h/Riscv.h ****     __asm__ volatile ("mv %[a0], a0" : [a0] "=r"(a0));
 156:src/../h/Riscv.h ****     return a0;
 157:src/../h/Riscv.h **** }
 158:src/../h/Riscv.h **** 
 159:src/../h/Riscv.h **** inline void Riscv::w_a0(uint64 a0) {
 160:src/../h/Riscv.h ****     __asm__ volatile ("mv a0, %[a0]" : : [a0] "r"(a0));
 161:src/../h/Riscv.h **** }
 162:src/../h/Riscv.h **** 
 163:src/../h/Riscv.h **** inline uint64 Riscv::r_a1() {
 164:src/../h/Riscv.h ****     uint64 volatile a1;
 165:src/../h/Riscv.h ****     __asm__ volatile ("mv %[a1], a1" : [a1] "=r"(a1));
 166:src/../h/Riscv.h ****     return a1;
 167:src/../h/Riscv.h **** }
 168:src/../h/Riscv.h **** 
 169:src/../h/Riscv.h **** inline void Riscv::w_a1(uint64 a1) {
 170:src/../h/Riscv.h ****     __asm__ volatile ("mv a1, %[a1]" : : [a1] "r"(a1));
 171:src/../h/Riscv.h **** }
 172:src/../h/Riscv.h **** 
 173:src/../h/Riscv.h **** inline uint64 Riscv::r_a2() {
 174:src/../h/Riscv.h ****     uint64 volatile a2;
 175:src/../h/Riscv.h ****     __asm__ volatile ("mv %[a2], a2" : [a2] "=r"(a2));
 176:src/../h/Riscv.h ****     return a2;
 177:src/../h/Riscv.h **** }
 178:src/../h/Riscv.h **** 
 179:src/../h/Riscv.h **** inline void Riscv::w_a2(uint64 a2) {
 180:src/../h/Riscv.h ****     __asm__ volatile ("mv a2, %[a2]" : : [a2] "r"(a2));
 181:src/../h/Riscv.h **** }
 182:src/../h/Riscv.h **** 
 183:src/../h/Riscv.h **** inline uint64 Riscv::r_scause() {
 184:src/../h/Riscv.h ****     uint64 volatile scause;
 185:src/../h/Riscv.h ****     __asm__ volatile ("csrr %[scause], scause" : [scause] "=r"(scause));
 186:src/../h/Riscv.h ****     return scause;
 187:src/../h/Riscv.h **** }
 188:src/../h/Riscv.h **** 
 189:src/../h/Riscv.h **** inline void Riscv::w_scause(uint64 scause) {
 190:src/../h/Riscv.h ****     __asm__ volatile ("csrw scause, %[scause]" : : [scause] "r"(scause));
 191:src/../h/Riscv.h **** }
 192:src/../h/Riscv.h **** 
 193:src/../h/Riscv.h **** inline uint64 Riscv::r_sepc() {
 194:src/../h/Riscv.h ****     uint64 volatile sepc;
 195:src/../h/Riscv.h ****     __asm__ volatile ("csrr %[sepc], sepc" : [sepc] "=r"(sepc));
 196:src/../h/Riscv.h ****     return sepc;
 197:src/../h/Riscv.h **** }
 198:src/../h/Riscv.h **** 
 199:src/../h/Riscv.h **** inline void Riscv::w_sepc(uint64 sepc) {
 200:src/../h/Riscv.h ****     __asm__ volatile ("csrw sepc, %[sepc]" : : [sepc] "r"(sepc));
 201:src/../h/Riscv.h **** }
 202:src/../h/Riscv.h **** 
 203:src/../h/Riscv.h **** inline uint64 Riscv::r_stvec() {
 204:src/../h/Riscv.h ****     uint64 volatile stvec;
 205:src/../h/Riscv.h ****     __asm__ volatile ("csrr %[stvec], stvec" : [stvec] "=r"(stvec));
GAS LISTING /tmp/ccvRqMu4.s 			page 10


 206:src/../h/Riscv.h ****     return stvec;
 207:src/../h/Riscv.h **** }
 208:src/../h/Riscv.h **** 
 209:src/../h/Riscv.h **** inline void Riscv::w_stvec(uint64 stvec) {
 210:src/../h/Riscv.h ****     __asm__ volatile ("csrw stvec, %[stvec]" : : [stvec] "r"(stvec));
 139              		.loc 4 210 5 is_stmt 1
 140              		.loc 4 210 69 is_stmt 0
 141              	#APP
 142              	# 210 "src/../h/Riscv.h" 1
 211              	}
 143              		csrw stvec, a5
 144              	# 0 "" 2
 145              	.LVL12:
 146              	#NO_APP
 147              	.LBE51:
 148              	.LBE50:
  21:src/main.cpp  **** 
  22:src/main.cpp  ****     uMain->join();
 149              		.loc 1 22 5 is_stmt 1
 150              		.loc 1 22 16 is_stmt 0
 151 00b8 13850400 		mv	a0,s1
 152 00bc 97000000 		call	_ZN3TCB4joinEv@plt
 152      E7800000 
 153              	.LVL13:
  23:src/main.cpp  ****     TCB::yield();
 154              		.loc 1 23 5 is_stmt 1
 155              	.LBB52:
 156              	.LBB53:
  31:src/../h/TCB.h ****     }
 157              		.loc 2 31 9
  31:src/../h/TCB.h ****     }
 158              		.loc 2 31 35 is_stmt 0
 159              	#APP
 160              	# 31 "src/../h/TCB.h" 1
 161              		ecall
 162              	# 0 "" 2
 163              	#NO_APP
 164              	.LBE53:
 165              	.LBE52:
  24:src/main.cpp  **** 
  25:src/main.cpp  ****     delete ThreadCollector::getInstance();
 166              		.loc 1 25 5 is_stmt 1
 167              		.loc 1 25 40 is_stmt 0
 168 00c8 97000000 		call	_ZN15ThreadCollector11getInstanceEv@plt
 168      E7800000 
 169              	.LVL14:
 170 00d0 93040500 		mv	s1,a0
 171              	.LVL15:
 172              		.loc 1 25 42
 173 00d4 630C0500 		beqz	a0,.L5
 174              		.loc 1 25 41 discriminator 1
 175 00d8 97000000 		call	_ZN15ThreadCollectorD1Ev@plt
 175      E7800000 
 176              	.LVL16:
 177              	.LBB54:
 178              	.LBB55:
  11:src/../h/KernelObject.h ****     }
GAS LISTING /tmp/ccvRqMu4.s 			page 11


  12:src/../h/KernelObject.h **** 
  13:src/../h/KernelObject.h ****     static void *operator new[](size_t size) {
  14:src/../h/KernelObject.h ****         size = (size - 1) / MEM_BLOCK_SIZE + 1;
  15:src/../h/KernelObject.h ****         return kmalloc(size);
  16:src/../h/KernelObject.h ****     }
  17:src/../h/KernelObject.h **** 
  18:src/../h/KernelObject.h ****     static void operator delete(void *addr) {
  19:src/../h/KernelObject.h ****         kfree(addr);
 179              		.loc 3 19 9 is_stmt 1 discriminator 1
 180              		.loc 3 19 14 is_stmt 0 discriminator 1
 181 00e0 13850400 		mv	a0,s1
 182 00e4 97000000 		call	_Z5kfreePv@plt
 182      E7800000 
 183              	.LVL17:
 184              	.L5:
 185              	.LBE55:
 186              	.LBE54:
  26:src/main.cpp  ****     delete IdleThread::getInstance();
 187              		.loc 1 26 5 is_stmt 1
 188              		.loc 1 26 35 is_stmt 0
 189 00ec 97000000 		call	_ZN10IdleThread11getInstanceEv@plt
 189      E7800000 
 190              	.LVL18:
 191 00f4 93040500 		mv	s1,a0
 192              		.loc 1 26 37
 193 00f8 630C0500 		beqz	a0,.L7
 194              		.loc 1 26 36 discriminator 1
 195 00fc 97000000 		call	_ZN10IdleThreadD1Ev@plt
 195      E7800000 
 196              	.LVL19:
 197              	.LBB56:
 198              	.LBB57:
 199              		.loc 3 19 9 is_stmt 1 discriminator 1
 200              		.loc 3 19 14 is_stmt 0 discriminator 1
 201 0104 13850400 		mv	a0,s1
 202 0108 97000000 		call	_Z5kfreePv@plt
 202      E7800000 
 203              	.LVL20:
 204              	.L7:
 205              	.LBE57:
 206              	.LBE56:
  27:src/main.cpp  ****     delete TimerInterrupt::getInstance();
 207              		.loc 1 27 5 is_stmt 1
 208              		.loc 1 27 39 is_stmt 0
 209 0110 97000000 		call	_ZN14TimerInterrupt11getInstanceEv@plt
 209      E7800000 
 210              	.LVL21:
 211 0118 93040500 		mv	s1,a0
 212              		.loc 1 27 41
 213 011c 630C0500 		beqz	a0,.L8
 214              		.loc 1 27 40 discriminator 1
 215 0120 97000000 		call	_ZN14TimerInterruptD1Ev@plt
 215      E7800000 
 216              	.LVL22:
 217              	.LBB58:
 218              	.LBB59:
 219              		.loc 3 19 9 is_stmt 1 discriminator 1
GAS LISTING /tmp/ccvRqMu4.s 			page 12


 220              		.loc 3 19 14 is_stmt 0 discriminator 1
 221 0128 13850400 		mv	a0,s1
 222 012c 97000000 		call	_Z5kfreePv@plt
 222      E7800000 
 223              	.LVL23:
 224              	.L8:
 225              	.LBE59:
 226              	.LBE58:
  28:src/main.cpp  ****     delete Scheduler::getInstance();
 227              		.loc 1 28 5 is_stmt 1
 228              		.loc 1 28 34 is_stmt 0
 229 0134 97000000 		call	_ZN9Scheduler11getInstanceEv@plt
 229      E7800000 
 230              	.LVL24:
 231 013c 93040500 		mv	s1,a0
 232              		.loc 1 28 36
 233 0140 630C0500 		beqz	a0,.L9
 234              		.loc 1 28 35 discriminator 1
 235 0144 97000000 		call	_ZN9SchedulerD1Ev@plt
 235      E7800000 
 236              	.LVL25:
 237              	.LBB60:
 238              	.LBB61:
 239              		.loc 3 19 9 is_stmt 1 discriminator 1
 240              		.loc 3 19 14 is_stmt 0 discriminator 1
 241 014c 13850400 		mv	a0,s1
 242 0150 97000000 		call	_Z5kfreePv@plt
 242      E7800000 
 243              	.LVL26:
 244              	.L9:
 245              	.LBE61:
 246              	.LBE60:
  29:src/main.cpp  **** 
  30:src/main.cpp  ****     kprintString("Main finished\n");
 247              		.loc 1 30 5 is_stmt 1
 248              		.loc 1 30 17 is_stmt 0
 249 0158 17050000 		lla	a0,.LC3
 249      13050500 
 250 0160 97000000 		call	_Z12kprintStringPKc@plt
 250      E7800000 
 251              	.LVL27:
 252              	.LEHE2:
  31:src/main.cpp  **** 
  32:src/main.cpp  ****     return 0;
 253              		.loc 1 32 5 is_stmt 1
  33:src/main.cpp  **** }
 254              		.loc 1 33 1 is_stmt 0
 255 0168 13050000 		li	a0,0
 256 016c 83308101 		ld	ra,24(sp)
 257              		.cfi_remember_state
 258              		.cfi_restore 1
 259 0170 03340101 		ld	s0,16(sp)
 260              		.cfi_restore 8
 261              		.cfi_def_cfa 2, 32
 262 0174 83348100 		ld	s1,8(sp)
 263              		.cfi_restore 9
 264 0178 03390100 		ld	s2,0(sp)
GAS LISTING /tmp/ccvRqMu4.s 			page 13


 265              		.cfi_restore 18
 266 017c 13010102 		addi	sp,sp,32
 267              		.cfi_def_cfa_offset 0
 268 0180 67800000 		jr	ra
 269              	.LVL28:
 270              	.L10:
 271              		.cfi_restore_state
 272 0184 13090500 		mv	s2,a0
 273              	.LVL29:
 274              	.LBB62:
 275              	.LBB49:
 276              	.LBB47:
 277              	.LBB48:
 278              		.loc 3 19 9 is_stmt 1
 279              		.loc 3 19 14 is_stmt 0
 280 0188 13850400 		mv	a0,s1
 281 018c 97000000 		call	_Z5kfreePv@plt
 281      E7800000 
 282              	.LVL30:
 283 0194 13050900 		mv	a0,s2
 284              	.LEHB3:
 285 0198 97000000 		call	_Unwind_Resume@plt
 285      E7800000 
 286              	.LVL31:
 287              	.LEHE3:
 288              	.LBE48:
 289              	.LBE47:
 290              	.LBE49:
 291              	.LBE62:
 292              		.cfi_endproc
 293              	.LFE106:
 294              		.globl	__gxx_personality_v0
 295              		.section	.gcc_except_table,"a",@progbits
 296              	.LLSDA106:
 297 0000 FF       		.byte	0xff
 298 0001 FF       		.byte	0xff
 299 0002 03       		.byte	0x3
 300 0003 34       		.byte	0x34
 301 0004 00000000 		.4byte	.LEHB0-.LFB106
 302 0008 00000000 		.4byte	.LEHE0-.LEHB0
 303 000c 00000000 		.4byte	0
 304 0010 00       		.byte	0
 305 0011 00000000 		.4byte	.LEHB1-.LFB106
 306 0015 00000000 		.4byte	.LEHE1-.LEHB1
 307 0019 00000000 		.4byte	.L10-.LFB106
 308 001d 00       		.byte	0
 309 001e 00000000 		.4byte	.LEHB2-.LFB106
 310 0022 00000000 		.4byte	.LEHE2-.LEHB2
 311 0026 00000000 		.4byte	0
 312 002a 00       		.byte	0
 313 002b 00000000 		.4byte	.LEHB3-.LFB106
 314 002f 00000000 		.4byte	.LEHE3-.LEHB3
 315 0033 00000000 		.4byte	0
 316 0037 00       		.byte	0
 317              		.text
 319              	.Letext0:
 320              		.file 5 "src/../h/../lib/hw.h"
GAS LISTING /tmp/ccvRqMu4.s 			page 14


 321              		.file 6 "src/../h/Mutex.h"
 322              		.file 7 "src/../h/ThreadNode.h"
 323              		.file 8 "src/../h/ThreadList.h"
 324              		.file 9 "src/../h/KernelSemaphore.h"
 325              		.file 10 "src/../h/TimerInterrupt.h"
 326              		.file 11 "src/../h/Scheduler.h"
 327              		.file 12 "src/../h/ThreadCollector.h"
 328              		.file 13 "src/../h/IdleThread.h"
 329              		.file 14 "src/../h/MemoryAllocator.h"
 330              		.file 15 "src/../h/SysPrint.h"
 4695              		.align	3
 4698              	DW.ref.__gxx_personality_v0:
 4699 0000 00000000 		.dword	__gxx_personality_v0
 4699      00000000 
 4700              		.ident	"GCC: (Ubuntu 9.4.0-1ubuntu1~20.04) 9.4.0"
 4701              		.section	.note.GNU-stack,"",@progbits
GAS LISTING /tmp/ccvRqMu4.s 			page 15


DEFINED SYMBOLS
                            *ABS*:0000000000000000 main.cpp
     /tmp/ccvRqMu4.s:8      .text:0000000000000000 _ZZ4mainENUlPvE_4_FUNES_
     /tmp/ccvRqMu4.s:12     .text:0000000000000000 .L0 
     /tmp/ccvRqMu4.s:13     .text:0000000000000000 .L0 
     /tmp/ccvRqMu4.s:14     .text:0000000000000004 .L0 
     /tmp/ccvRqMu4.s:17     .text:000000000000000c .L0 
     /tmp/ccvRqMu4.s:18     .text:000000000000000c .L0 
     /tmp/ccvRqMu4.s:20     .text:0000000000000010 .L0 
     /tmp/ccvRqMu4.s:25     .text:0000000000000010 .L0 
     /tmp/ccvRqMu4.s:26     .text:0000000000000010 .L0 
     /tmp/ccvRqMu4.s:31     .text:0000000000000018 .L0 
     /tmp/ccvRqMu4.s:32     .text:000000000000001c .L0 
     /tmp/ccvRqMu4.s:34     .text:0000000000000020 .L0 
     /tmp/ccvRqMu4.s:35     .text:0000000000000020 .L0 
     /tmp/ccvRqMu4.s:37     .text:0000000000000024 .L0 
     /tmp/ccvRqMu4.s:39     .text:0000000000000028 .L0 
     /tmp/ccvRqMu4.s:59     .text:0000000000000028 main
     /tmp/ccvRqMu4.s:62     .text:0000000000000028 .L0 
     /tmp/ccvRqMu4.s:4698   .data.rel.local.DW.ref.__gxx_personality_v0:0000000000000000 DW.ref.__gxx_personality_v0
     /tmp/ccvRqMu4.s:65     .text:0000000000000028 .L0 
     /tmp/ccvRqMu4.s:66     .text:000000000000002c .L0 
     /tmp/ccvRqMu4.s:71     .text:000000000000003c .L0 
     /tmp/ccvRqMu4.s:72     .text:000000000000003c .L0 
     /tmp/ccvRqMu4.s:73     .text:000000000000003c .L0 
     /tmp/ccvRqMu4.s:74     .text:000000000000003c .L0 
     /tmp/ccvRqMu4.s:76     .text:0000000000000040 .L0 
     /tmp/ccvRqMu4.s:78     .text:0000000000000040 .L0 
     /tmp/ccvRqMu4.s:79     .text:0000000000000040 .L0 
     /tmp/ccvRqMu4.s:87     .text:0000000000000050 .L0 
     /tmp/ccvRqMu4.s:91     .text:0000000000000050 .L0 
     /tmp/ccvRqMu4.s:92     .text:0000000000000050 .L0 
     /tmp/ccvRqMu4.s:93     .text:0000000000000050 .L0 
     /tmp/ccvRqMu4.s:94     .text:0000000000000050 .L0 
     /tmp/ccvRqMu4.s:109    .text:0000000000000068 .L0 
     /tmp/ccvRqMu4.s:110    .text:0000000000000068 .L0 
     /tmp/ccvRqMu4.s:115    .text:0000000000000078 .L0 
     /tmp/ccvRqMu4.s:116    .text:0000000000000078 .L0 
     /tmp/ccvRqMu4.s:120    .text:0000000000000084 .L0 
     /tmp/ccvRqMu4.s:121    .text:0000000000000084 .L0 
     /tmp/ccvRqMu4.s:128    .text:000000000000009c .L0 
     /tmp/ccvRqMu4.s:129    .text:000000000000009c .L0 
     /tmp/ccvRqMu4.s:133    .text:00000000000000ac .L0 
     /tmp/ccvRqMu4.s:134    .text:00000000000000ac .L0 
     /tmp/ccvRqMu4.s:140    .text:00000000000000b4 .L0 
    src/../h/Riscv.h:210    .text:00000000000000b4 .L0 
     /tmp/ccvRqMu4.s:150    .text:00000000000000b8 .L0 
     /tmp/ccvRqMu4.s:151    .text:00000000000000b8 .L0 
     /tmp/ccvRqMu4.s:157    .text:00000000000000c4 .L0 
     /tmp/ccvRqMu4.s:158    .text:00000000000000c4 .L0 
      src/../h/TCB.h:31     .text:00000000000000c4 .L0 
     /tmp/ccvRqMu4.s:167    .text:00000000000000c8 .L0 
     /tmp/ccvRqMu4.s:168    .text:00000000000000c8 .L0 
     /tmp/ccvRqMu4.s:173    .text:00000000000000d4 .L0 
     /tmp/ccvRqMu4.s:175    .text:00000000000000d8 .L0 
     /tmp/ccvRqMu4.s:180    .text:00000000000000e0 .L0 
     /tmp/ccvRqMu4.s:181    .text:00000000000000e0 .L0 
GAS LISTING /tmp/ccvRqMu4.s 			page 16


     /tmp/ccvRqMu4.s:188    .text:00000000000000ec .L0 
     /tmp/ccvRqMu4.s:189    .text:00000000000000ec .L0 
     /tmp/ccvRqMu4.s:193    .text:00000000000000f8 .L0 
     /tmp/ccvRqMu4.s:195    .text:00000000000000fc .L0 
     /tmp/ccvRqMu4.s:200    .text:0000000000000104 .L0 
     /tmp/ccvRqMu4.s:201    .text:0000000000000104 .L0 
     /tmp/ccvRqMu4.s:208    .text:0000000000000110 .L0 
     /tmp/ccvRqMu4.s:209    .text:0000000000000110 .L0 
     /tmp/ccvRqMu4.s:213    .text:000000000000011c .L0 
     /tmp/ccvRqMu4.s:215    .text:0000000000000120 .L0 
     /tmp/ccvRqMu4.s:220    .text:0000000000000128 .L0 
     /tmp/ccvRqMu4.s:221    .text:0000000000000128 .L0 
     /tmp/ccvRqMu4.s:228    .text:0000000000000134 .L0 
     /tmp/ccvRqMu4.s:229    .text:0000000000000134 .L0 
     /tmp/ccvRqMu4.s:233    .text:0000000000000140 .L0 
     /tmp/ccvRqMu4.s:235    .text:0000000000000144 .L0 
     /tmp/ccvRqMu4.s:240    .text:000000000000014c .L0 
     /tmp/ccvRqMu4.s:241    .text:000000000000014c .L0 
     /tmp/ccvRqMu4.s:248    .text:0000000000000158 .L0 
     /tmp/ccvRqMu4.s:249    .text:0000000000000158 .L0 
     /tmp/ccvRqMu4.s:254    .text:0000000000000168 .L0 
     /tmp/ccvRqMu4.s:255    .text:0000000000000168 .L0 
     /tmp/ccvRqMu4.s:257    .text:0000000000000170 .L0 
     /tmp/ccvRqMu4.s:258    .text:0000000000000170 .L0 
     /tmp/ccvRqMu4.s:260    .text:0000000000000174 .L0 
     /tmp/ccvRqMu4.s:261    .text:0000000000000174 .L0 
     /tmp/ccvRqMu4.s:263    .text:0000000000000178 .L0 
     /tmp/ccvRqMu4.s:265    .text:000000000000017c .L0 
     /tmp/ccvRqMu4.s:267    .text:0000000000000180 .L0 
     /tmp/ccvRqMu4.s:271    .text:0000000000000184 .L0 
     /tmp/ccvRqMu4.s:279    .text:0000000000000188 .L0 
     /tmp/ccvRqMu4.s:280    .text:0000000000000188 .L0 
     /tmp/ccvRqMu4.s:292    .text:00000000000001a0 .L0 
     /tmp/ccvRqMu4.s:331    .text:00000000000001a0 .L0 
     /tmp/ccvRqMu4.s:44     .rodata.str1.8:0000000000000000 .LC0
     /tmp/ccvRqMu4.s:79     .text:0000000000000040 .L0 
     /tmp/ccvRqMu4.s:47     .rodata.str1.8:0000000000000010 .LC1
     /tmp/ccvRqMu4.s:110    .text:0000000000000068 .L0 
     /tmp/ccvRqMu4.s:116    .text:0000000000000078 .L0 
     /tmp/ccvRqMu4.s:122    .text:0000000000000088 .L0 
     /tmp/ccvRqMu4.s:50     .rodata.str1.8:0000000000000028 .LC2
     /tmp/ccvRqMu4.s:129    .text:000000000000009c .L0 
     /tmp/ccvRqMu4.s:134    .text:00000000000000ac .L0 
     /tmp/ccvRqMu4.s:53     .rodata.str1.8:0000000000000048 .LC3
     /tmp/ccvRqMu4.s:249    .text:0000000000000158 .L0 
     /tmp/ccvRqMu4.s:184    .text:00000000000000ec .L5
     /tmp/ccvRqMu4.s:204    .text:0000000000000110 .L7
     /tmp/ccvRqMu4.s:224    .text:0000000000000134 .L8
     /tmp/ccvRqMu4.s:244    .text:0000000000000158 .L9
     /tmp/ccvRqMu4.s:80     .text:0000000000000048 .LEHB0
     /tmp/ccvRqMu4.s:60     .text:0000000000000028 .LFB106
     /tmp/ccvRqMu4.s:97     .text:000000000000005c .LEHE0
     /tmp/ccvRqMu4.s:100    .text:0000000000000060 .LEHB1
     /tmp/ccvRqMu4.s:105    .text:0000000000000068 .LEHE1
     /tmp/ccvRqMu4.s:270    .text:0000000000000184 .L10
     /tmp/ccvRqMu4.s:111    .text:0000000000000070 .LEHB2
     /tmp/ccvRqMu4.s:252    .text:0000000000000168 .LEHE2
GAS LISTING /tmp/ccvRqMu4.s 			page 17


     /tmp/ccvRqMu4.s:284    .text:0000000000000198 .LEHB3
     /tmp/ccvRqMu4.s:287    .text:00000000000001a0 .LEHE3
     /tmp/ccvRqMu4.s:2788   .debug_abbrev:0000000000000000 .Ldebug_abbrev0
     /tmp/ccvRqMu4.s:4636   .debug_str:0000000000001194 .LASF293
     /tmp/ccvRqMu4.s:4234   .debug_str:0000000000000447 .LASF294
     /tmp/ccvRqMu4.s:4460   .debug_str:0000000000000b78 .LASF295
     /tmp/ccvRqMu4.s:5      .text:0000000000000000 .Ltext0
     /tmp/ccvRqMu4.s:319    .text:00000000000001a0 .Letext0
     /tmp/ccvRqMu4.s:4084   .debug_line:0000000000000000 .Ldebug_line0
     /tmp/ccvRqMu4.s:4280   .debug_str:0000000000000574 .LASF0
     /tmp/ccvRqMu4.s:4324   .debug_str:00000000000006ca .LASF1
     /tmp/ccvRqMu4.s:4474   .debug_str:0000000000000c20 .LASF2
     /tmp/ccvRqMu4.s:4490   .debug_str:0000000000000c7f .LASF4
     /tmp/ccvRqMu4.s:4294   .debug_str:00000000000005d8 .LASF3
     /tmp/ccvRqMu4.s:4108   .debug_str:00000000000000c3 .LASF5
     /tmp/ccvRqMu4.s:4436   .debug_str:0000000000000ab0 .LASF6
     /tmp/ccvRqMu4.s:4424   .debug_str:0000000000000a39 .LASF7
     /tmp/ccvRqMu4.s:4310   .debug_str:000000000000066a .LASF8
     /tmp/ccvRqMu4.s:4246   .debug_str:0000000000000482 .LASF9
     /tmp/ccvRqMu4.s:4256   .debug_str:00000000000004be .LASF10
     /tmp/ccvRqMu4.s:4168   .debug_str:000000000000029b .LASF11
     /tmp/ccvRqMu4.s:4230   .debug_str:0000000000000430 .LASF12
     /tmp/ccvRqMu4.s:4186   .debug_str:0000000000000305 .LASF13
     /tmp/ccvRqMu4.s:4166   .debug_str:000000000000028b .LASF14
     /tmp/ccvRqMu4.s:4542   .debug_str:0000000000000e4b .LASF15
     /tmp/ccvRqMu4.s:4214   .debug_str:00000000000003b4 .LASF16
     /tmp/ccvRqMu4.s:4522   .debug_str:0000000000000d82 .LASF17
     /tmp/ccvRqMu4.s:4348   .debug_str:00000000000007b3 .LASF18
     /tmp/ccvRqMu4.s:4392   .debug_str:0000000000000944 .LASF23
     /tmp/ccvRqMu4.s:4204   .debug_str:0000000000000376 .LASF19
     /tmp/ccvRqMu4.s:4444   .debug_str:0000000000000ae6 .LASF21
     /tmp/ccvRqMu4.s:4546   .debug_str:0000000000000e73 .LASF20
     /tmp/ccvRqMu4.s:4438   .debug_str:0000000000000ab7 .LASF22
     /tmp/ccvRqMu4.s:4134   .debug_str:00000000000001ae .LASF31
     /tmp/ccvRqMu4.s:4190   .debug_str:000000000000031c .LASF24
     /tmp/ccvRqMu4.s:4676   .debug_str:0000000000001379 .LASF25
     /tmp/ccvRqMu4.s:4556   .debug_str:0000000000000eb0 .LASF26
     /tmp/ccvRqMu4.s:4154   .debug_str:000000000000022c .LASF27
     /tmp/ccvRqMu4.s:4540   .debug_str:0000000000000e35 .LASF28
     /tmp/ccvRqMu4.s:4098   .debug_str:000000000000004b .LASF89
     /tmp/ccvRqMu4.s:4608   .debug_str:00000000000010b6 .LASF168
     /tmp/ccvRqMu4.s:4520   .debug_str:0000000000000d6f .LASF102
     /tmp/ccvRqMu4.s:4136   .debug_str:00000000000001b5 .LASF104
     /tmp/ccvRqMu4.s:4216   .debug_str:00000000000003ca .LASF29
     /tmp/ccvRqMu4.s:4326   .debug_str:00000000000006dd .LASF30
     /tmp/ccvRqMu4.s:4318   .debug_str:00000000000006b1 .LASF32
     /tmp/ccvRqMu4.s:4170   .debug_str:00000000000002aa .LASF33
     /tmp/ccvRqMu4.s:4132   .debug_str:00000000000001a9 .LASF34
     /tmp/ccvRqMu4.s:4664   .debug_str:0000000000001320 .LASF296
     /tmp/ccvRqMu4.s:4162   .debug_str:0000000000000269 .LASF35
     /tmp/ccvRqMu4.s:4150   .debug_str:0000000000000215 .LASF36
     /tmp/ccvRqMu4.s:4090   .debug_str:0000000000000021 .LASF37
     /tmp/ccvRqMu4.s:4250   .debug_str:00000000000004a8 .LASF38
     /tmp/ccvRqMu4.s:4550   .debug_str:0000000000000e8a .LASF275
     /tmp/ccvRqMu4.s:4160   .debug_str:0000000000000256 .LASF39
     /tmp/ccvRqMu4.s:4574   .debug_str:0000000000000f68 .LASF40
     /tmp/ccvRqMu4.s:4404   .debug_str:00000000000009bb .LASF297
GAS LISTING /tmp/ccvRqMu4.s 			page 18


     /tmp/ccvRqMu4.s:4588   .debug_str:0000000000001000 .LASF41
     /tmp/ccvRqMu4.s:4386   .debug_str:000000000000090f .LASF42
     /tmp/ccvRqMu4.s:4502   .debug_str:0000000000000cc8 .LASF43
     /tmp/ccvRqMu4.s:4306   .debug_str:0000000000000633 .LASF44
     /tmp/ccvRqMu4.s:4564   .debug_str:0000000000000f03 .LASF51
     /tmp/ccvRqMu4.s:4092   .debug_str:0000000000000029 .LASF53
     /tmp/ccvRqMu4.s:4328   .debug_str:00000000000006fb .LASF45
     /tmp/ccvRqMu4.s:4580   .debug_str:0000000000000fcb .LASF47
     /tmp/ccvRqMu4.s:4202   .debug_str:000000000000036d .LASF46
     /tmp/ccvRqMu4.s:4176   .debug_str:00000000000002c9 .LASF48
     /tmp/ccvRqMu4.s:4516   .debug_str:0000000000000d58 .LASF49
     /tmp/ccvRqMu4.s:4304   .debug_str:0000000000000624 .LASF50
     /tmp/ccvRqMu4.s:4478   .debug_str:0000000000000c3a .LASF52
     /tmp/ccvRqMu4.s:4158   .debug_str:0000000000000241 .LASF54
     /tmp/ccvRqMu4.s:4350   .debug_str:00000000000007b8 .LASF55
     /tmp/ccvRqMu4.s:4248   .debug_str:0000000000000492 .LASF56
     /tmp/ccvRqMu4.s:4604   .debug_str:000000000000109f .LASF57
     /tmp/ccvRqMu4.s:4504   .debug_str:0000000000000cec .LASF58
     /tmp/ccvRqMu4.s:4456   .debug_str:0000000000000b62 .LASF59
     /tmp/ccvRqMu4.s:4450   .debug_str:0000000000000b20 .LASF60
     /tmp/ccvRqMu4.s:4552   .debug_str:0000000000000e92 .LASF61
     /tmp/ccvRqMu4.s:4376   .debug_str:00000000000008ab .LASF62
     /tmp/ccvRqMu4.s:4146   .debug_str:00000000000001f9 .LASF63
     /tmp/ccvRqMu4.s:4618   .debug_str:0000000000001117 .LASF64
     /tmp/ccvRqMu4.s:4352   .debug_str:00000000000007c3 .LASF65
     /tmp/ccvRqMu4.s:4368   .debug_str:0000000000000869 .LASF66
     /tmp/ccvRqMu4.s:4272   .debug_str:000000000000053c .LASF67
     /tmp/ccvRqMu4.s:4586   .debug_str:0000000000000fee .LASF68
     /tmp/ccvRqMu4.s:4330   .debug_str:0000000000000701 .LASF69
     /tmp/ccvRqMu4.s:4610   .debug_str:00000000000010cd .LASF70
     /tmp/ccvRqMu4.s:4652   .debug_str:00000000000012a2 .LASF71
     /tmp/ccvRqMu4.s:4686   .debug_str:00000000000013c8 .LASF72
     /tmp/ccvRqMu4.s:4200   .debug_str:000000000000035e .LASF73
     /tmp/ccvRqMu4.s:4432   .debug_str:0000000000000a83 .LASF74
     /tmp/ccvRqMu4.s:4320   .debug_str:00000000000006b6 .LASF75
     /tmp/ccvRqMu4.s:4210   .debug_str:000000000000038e .LASF76
     /tmp/ccvRqMu4.s:4344   .debug_str:0000000000000792 .LASF77
     /tmp/ccvRqMu4.s:4682   .debug_str:00000000000013ad .LASF78
     /tmp/ccvRqMu4.s:4316   .debug_str:00000000000006aa .LASF79
     /tmp/ccvRqMu4.s:4448   .debug_str:0000000000000b0e .LASF80
     /tmp/ccvRqMu4.s:4148   .debug_str:0000000000000205 .LASF81
     /tmp/ccvRqMu4.s:4524   .debug_str:0000000000000d98 .LASF82
     /tmp/ccvRqMu4.s:4688   .debug_str:00000000000013e3 .LASF83
     /tmp/ccvRqMu4.s:4340   .debug_str:000000000000076f .LASF84
     /tmp/ccvRqMu4.s:4232   .debug_str:000000000000043f .LASF85
     /tmp/ccvRqMu4.s:4532   .debug_str:0000000000000de0 .LASF86
     /tmp/ccvRqMu4.s:4284   .debug_str:0000000000000589 .LASF175
     /tmp/ccvRqMu4.s:4572   .debug_str:0000000000000f60 .LASF298
     /tmp/ccvRqMu4.s:4492   .debug_str:0000000000000c86 .LASF87
     /tmp/ccvRqMu4.s:4104   .debug_str:000000000000009f .LASF88
     /tmp/ccvRqMu4.s:4252   .debug_str:00000000000004ad .LASF246
     /tmp/ccvRqMu4.s:4512   .debug_str:0000000000000d20 .LASF270
     /tmp/ccvRqMu4.s:4096   .debug_str:0000000000000046 .LASF90
     /tmp/ccvRqMu4.s:4672   .debug_str:000000000000135c .LASF91
     /tmp/ccvRqMu4.s:4634   .debug_str:0000000000001188 .LASF92
     /tmp/ccvRqMu4.s:4196   .debug_str:0000000000000341 .LASF93
     /tmp/ccvRqMu4.s:4364   .debug_str:0000000000000838 .LASF94
GAS LISTING /tmp/ccvRqMu4.s 			page 19


     /tmp/ccvRqMu4.s:4590   .debug_str:0000000000001028 .LASF95
     /tmp/ccvRqMu4.s:4584   .debug_str:0000000000000fe4 .LASF96
     /tmp/ccvRqMu4.s:4620   .debug_str:000000000000112e .LASF97
     /tmp/ccvRqMu4.s:4488   .debug_str:0000000000000c71 .LASF98
     /tmp/ccvRqMu4.s:4466   .debug_str:0000000000000bfd .LASF99
     /tmp/ccvRqMu4.s:4484   .debug_str:0000000000000c65 .LASF100
     /tmp/ccvRqMu4.s:4224   .debug_str:0000000000000417 .LASF101
     /tmp/ccvRqMu4.s:4152   .debug_str:000000000000021e .LASF229
     /tmp/ccvRqMu4.s:4332   .debug_str:000000000000070e .LASF231
     /tmp/ccvRqMu4.s:4192   .debug_str:0000000000000329 .LASF103
     /tmp/ccvRqMu4.s:4102   .debug_str:0000000000000077 .LASF105
     /tmp/ccvRqMu4.s:4500   .debug_str:0000000000000cb7 .LASF242
     /tmp/ccvRqMu4.s:4258   .debug_str:00000000000004cc .LASF106
     /tmp/ccvRqMu4.s:4394   .debug_str:000000000000094a .LASF109
     /tmp/ccvRqMu4.s:4126   .debug_str:0000000000000172 .LASF107
     /tmp/ccvRqMu4.s:4194   .debug_str:0000000000000337 .LASF108
     /tmp/ccvRqMu4.s:4446   .debug_str:0000000000000af7 .LASF110
     /tmp/ccvRqMu4.s:4582   .debug_str:0000000000000fdb .LASF111
     /tmp/ccvRqMu4.s:4112   .debug_str:00000000000000e5 .LASF112
     /tmp/ccvRqMu4.s:4468   .debug_str:0000000000000c03 .LASF113
     /tmp/ccvRqMu4.s:4398   .debug_str:0000000000000973 .LASF114
     /tmp/ccvRqMu4.s:4342   .debug_str:000000000000078a .LASF115
     /tmp/ccvRqMu4.s:4366   .debug_str:0000000000000843 .LASF116
     /tmp/ccvRqMu4.s:4414   .debug_str:00000000000009f4 .LASF117
     /tmp/ccvRqMu4.s:4302   .debug_str:0000000000000605 .LASF118
     /tmp/ccvRqMu4.s:4412   .debug_str:00000000000009eb .LASF119
     /tmp/ccvRqMu4.s:4110   .debug_str:00000000000000ca .LASF120
     /tmp/ccvRqMu4.s:4506   .debug_str:0000000000000cff .LASF121
     /tmp/ccvRqMu4.s:4570   .debug_str:0000000000000f42 .LASF122
     /tmp/ccvRqMu4.s:4690   .debug_str:00000000000013f2 .LASF123
     /tmp/ccvRqMu4.s:4312   .debug_str:000000000000067d .LASF124
     /tmp/ccvRqMu4.s:4486   .debug_str:0000000000000c6a .LASF125
     /tmp/ccvRqMu4.s:4538   .debug_str:0000000000000e1c .LASF126
     /tmp/ccvRqMu4.s:4172   .debug_str:00000000000002af .LASF127
     /tmp/ccvRqMu4.s:4666   .debug_str:0000000000001327 .LASF128
     /tmp/ccvRqMu4.s:4130   .debug_str:00000000000001a2 .LASF129
     /tmp/ccvRqMu4.s:4400   .debug_str:000000000000099a .LASF130
     /tmp/ccvRqMu4.s:4684   .debug_str:00000000000013c1 .LASF131
     /tmp/ccvRqMu4.s:4576   .debug_str:0000000000000f8e .LASF132
     /tmp/ccvRqMu4.s:4282   .debug_str:0000000000000581 .LASF133
     /tmp/ccvRqMu4.s:4658   .debug_str:00000000000012e5 .LASF134
     /tmp/ccvRqMu4.s:4208   .debug_str:0000000000000386 .LASF135
     /tmp/ccvRqMu4.s:4334   .debug_str:0000000000000727 .LASF136
     /tmp/ccvRqMu4.s:4226   .debug_str:0000000000000423 .LASF137
     /tmp/ccvRqMu4.s:4338   .debug_str:0000000000000755 .LASF138
     /tmp/ccvRqMu4.s:4408   .debug_str:00000000000009d1 .LASF139
     /tmp/ccvRqMu4.s:4678   .debug_str:0000000000001386 .LASF140
     /tmp/ccvRqMu4.s:4622   .debug_str:0000000000001135 .LASF141
     /tmp/ccvRqMu4.s:4378   .debug_str:00000000000008c2 .LASF142
     /tmp/ccvRqMu4.s:4372   .debug_str:0000000000000886 .LASF143
     /tmp/ccvRqMu4.s:4568   .debug_str:0000000000000f12 .LASF144
     /tmp/ccvRqMu4.s:4416   .debug_str:0000000000000a00 .LASF145
     /tmp/ccvRqMu4.s:4336   .debug_str:0000000000000741 .LASF146
     /tmp/ccvRqMu4.s:4228   .debug_str:000000000000042b .LASF147
     /tmp/ccvRqMu4.s:4382   .debug_str:00000000000008f9 .LASF148
     /tmp/ccvRqMu4.s:4292   .debug_str:00000000000005d3 .LASF149
     /tmp/ccvRqMu4.s:4322   .debug_str:00000000000006c5 .LASF150
GAS LISTING /tmp/ccvRqMu4.s 			page 20


     /tmp/ccvRqMu4.s:4530   .debug_str:0000000000000dd0 .LASF151
     /tmp/ccvRqMu4.s:4354   .debug_str:00000000000007ca .LASF152
     /tmp/ccvRqMu4.s:4544   .debug_str:0000000000000e57 .LASF153
     /tmp/ccvRqMu4.s:4654   .debug_str:00000000000012b1 .LASF154
     /tmp/ccvRqMu4.s:4496   .debug_str:0000000000000c9f .LASF155
     /tmp/ccvRqMu4.s:4632   .debug_str:000000000000116f .LASF156
     /tmp/ccvRqMu4.s:4278   .debug_str:000000000000056e .LASF157
     /tmp/ccvRqMu4.s:4644   .debug_str:0000000000001258 .LASF158
     /tmp/ccvRqMu4.s:4670   .debug_str:0000000000001354 .LASF159
     /tmp/ccvRqMu4.s:4268   .debug_str:0000000000000517 .LASF160
     /tmp/ccvRqMu4.s:4554   .debug_str:0000000000000e9d .LASF161
     /tmp/ccvRqMu4.s:4628   .debug_str:0000000000001157 .LASF162
     /tmp/ccvRqMu4.s:4290   .debug_str:00000000000005c1 .LASF163
     /tmp/ccvRqMu4.s:4388   .debug_str:0000000000000920 .LASF164
     /tmp/ccvRqMu4.s:4614   .debug_str:00000000000010ff .LASF165
     /tmp/ccvRqMu4.s:4562   .debug_str:0000000000000ee5 .LASF166
     /tmp/ccvRqMu4.s:4266   .debug_str:000000000000050c .LASF167
     /tmp/ccvRqMu4.s:4346   .debug_str:000000000000079b .LASF169
     /tmp/ccvRqMu4.s:4606   .debug_str:00000000000010a7 .LASF170
     /tmp/ccvRqMu4.s:4164   .debug_str:000000000000026f .LASF171
     /tmp/ccvRqMu4.s:4558   .debug_str:0000000000000ec6 .LASF172
     /tmp/ccvRqMu4.s:4100   .debug_str:000000000000005b .LASF173
     /tmp/ccvRqMu4.s:4462   .debug_str:0000000000000bd9 .LASF174
     /tmp/ccvRqMu4.s:4596   .debug_str:0000000000001057 .LASF176
     /tmp/ccvRqMu4.s:4140   .debug_str:00000000000001e4 .LASF177
     /tmp/ccvRqMu4.s:4384   .debug_str:00000000000008fe .LASF178
     /tmp/ccvRqMu4.s:4650   .debug_str:000000000000129c .LASF179
     /tmp/ccvRqMu4.s:4630   .debug_str:000000000000115d .LASF180
     /tmp/ccvRqMu4.s:4254   .debug_str:00000000000004b9 .LASF181
     /tmp/ccvRqMu4.s:4422   .debug_str:0000000000000a28 .LASF182
     /tmp/ccvRqMu4.s:4390   .debug_str:000000000000093f .LASF183
     /tmp/ccvRqMu4.s:4406   .debug_str:00000000000009c0 .LASF184
     /tmp/ccvRqMu4.s:4298   .debug_str:00000000000005fb .LASF185
     /tmp/ccvRqMu4.s:4358   .debug_str:0000000000000804 .LASF186
     /tmp/ccvRqMu4.s:4638   .debug_str:0000000000001236 .LASF187
     /tmp/ccvRqMu4.s:4296   .debug_str:00000000000005ea .LASF188
     /tmp/ccvRqMu4.s:4300   .debug_str:0000000000000600 .LASF189
     /tmp/ccvRqMu4.s:4418   .debug_str:0000000000000a0c .LASF190
     /tmp/ccvRqMu4.s:4640   .debug_str:000000000000123b .LASF191
     /tmp/ccvRqMu4.s:4198   .debug_str:000000000000034d .LASF192
     /tmp/ccvRqMu4.s:4144   .debug_str:00000000000001f4 .LASF193
     /tmp/ccvRqMu4.s:4308   .debug_str:0000000000000659 .LASF194
     /tmp/ccvRqMu4.s:4602   .debug_str:0000000000001096 .LASF195
     /tmp/ccvRqMu4.s:4592   .debug_str:0000000000001030 .LASF196
     /tmp/ccvRqMu4.s:4470   .debug_str:0000000000000c0c .LASF197
     /tmp/ccvRqMu4.s:4396   .debug_str:000000000000095e .LASF198
     /tmp/ccvRqMu4.s:4616   .debug_str:0000000000001110 .LASF199
     /tmp/ccvRqMu4.s:4434   .debug_str:0000000000000a9d .LASF200
     /tmp/ccvRqMu4.s:4188   .debug_str:0000000000000315 .LASF201
     /tmp/ccvRqMu4.s:4314   .debug_str:0000000000000697 .LASF202
     /tmp/ccvRqMu4.s:4648   .debug_str:0000000000001294 .LASF203
     /tmp/ccvRqMu4.s:4494   .debug_str:0000000000000c8b .LASF204
     /tmp/ccvRqMu4.s:4380   .debug_str:00000000000008f1 .LASF205
     /tmp/ccvRqMu4.s:4236   .debug_str:0000000000000454 .LASF206
     /tmp/ccvRqMu4.s:4402   .debug_str:00000000000009b3 .LASF207
     /tmp/ccvRqMu4.s:4454   .debug_str:0000000000000b4e .LASF208
     /tmp/ccvRqMu4.s:4526   .debug_str:0000000000000db4 .LASF209
GAS LISTING /tmp/ccvRqMu4.s 			page 21


     /tmp/ccvRqMu4.s:4288   .debug_str:00000000000005ad .LASF210
     /tmp/ccvRqMu4.s:4536   .debug_str:0000000000000e15 .LASF211
     /tmp/ccvRqMu4.s:4182   .debug_str:00000000000002ec .LASF212
     /tmp/ccvRqMu4.s:4498   .debug_str:0000000000000cb0 .LASF213
     /tmp/ccvRqMu4.s:4174   .debug_str:00000000000002b6 .LASF214
     /tmp/ccvRqMu4.s:4178   .debug_str:00000000000002dc .LASF215
     /tmp/ccvRqMu4.s:4276   .debug_str:000000000000055c .LASF216
     /tmp/ccvRqMu4.s:4286   .debug_str:00000000000005a7 .LASF217
     /tmp/ccvRqMu4.s:4262   .debug_str:00000000000004e6 .LASF218
     /tmp/ccvRqMu4.s:4086   .debug_str:0000000000000000 .LASF219
     /tmp/ccvRqMu4.s:4480   .debug_str:0000000000000c44 .LASF220
     /tmp/ccvRqMu4.s:4472   .debug_str:0000000000000c15 .LASF221
     /tmp/ccvRqMu4.s:4674   .debug_str:0000000000001361 .LASF222
     /tmp/ccvRqMu4.s:4566   .debug_str:0000000000000f08 .LASF223
     /tmp/ccvRqMu4.s:4656   .debug_str:00000000000012cf .LASF224
     /tmp/ccvRqMu4.s:4624   .debug_str:0000000000001145 .LASF225
     /tmp/ccvRqMu4.s:4360   .debug_str:0000000000000815 .LASF226
     /tmp/ccvRqMu4.s:4260   .debug_str:00000000000004d7 .LASF227
     /tmp/ccvRqMu4.s:4122   .debug_str:000000000000014c .LASF228
     /tmp/ccvRqMu4.s:4426   .debug_str:0000000000000a4c .LASF230
     /tmp/ccvRqMu4.s:4218   .debug_str:00000000000003d5 .LASF232
     /tmp/ccvRqMu4.s:4118   .debug_str:000000000000012d .LASF233
     /tmp/ccvRqMu4.s:4356   .debug_str:00000000000007e3 .LASF234
     /tmp/ccvRqMu4.s:4222   .debug_str:0000000000000412 .LASF235
     /tmp/ccvRqMu4.s:4220   .debug_str:00000000000003f7 .LASF236
     /tmp/ccvRqMu4.s:4212   .debug_str:00000000000003a8 .LASF237
     /tmp/ccvRqMu4.s:4534   .debug_str:0000000000000df2 .LASF238
     /tmp/ccvRqMu4.s:4410   .debug_str:00000000000009db .LASF239
     /tmp/ccvRqMu4.s:4642   .debug_str:0000000000001240 .LASF240
     /tmp/ccvRqMu4.s:4106   .debug_str:00000000000000ab .LASF241
     /tmp/ccvRqMu4.s:4482   .debug_str:0000000000000c5c .LASF243
     /tmp/ccvRqMu4.s:4518   .debug_str:0000000000000d5d .LASF244
     /tmp/ccvRqMu4.s:4244   .debug_str:0000000000000478 .LASF245
     /tmp/ccvRqMu4.s:4668   .debug_str:0000000000001340 .LASF299
     /tmp/ccvRqMu4.s:4274   .debug_str:0000000000000544 .LASF247
     /tmp/ccvRqMu4.s:4600   .debug_str:0000000000001079 .LASF248
     /tmp/ccvRqMu4.s:4206   .debug_str:000000000000037b .LASF249
     /tmp/ccvRqMu4.s:4594   .debug_str:0000000000001045 .LASF250
     /tmp/ccvRqMu4.s:4660   .debug_str:00000000000012ff .LASF251
     /tmp/ccvRqMu4.s:4510   .debug_str:0000000000000d0f .LASF252
     /tmp/ccvRqMu4.s:4560   .debug_str:0000000000000ed5 .LASF253
     /tmp/ccvRqMu4.s:4578   .debug_str:0000000000000fa7 .LASF254
     /tmp/ccvRqMu4.s:4464   .debug_str:0000000000000bde .LASF255
     /tmp/ccvRqMu4.s:4114   .debug_str:0000000000000101 .LASF256
     /tmp/ccvRqMu4.s:4598   .debug_str:0000000000001068 .LASF257
     /tmp/ccvRqMu4.s:4430   .debug_str:0000000000000a6a .LASF258
     /tmp/ccvRqMu4.s:4128   .debug_str:0000000000000189 .LASF259
     /tmp/ccvRqMu4.s:4452   .debug_str:0000000000000b33 .LASF300
     /tmp/ccvRqMu4.s:4548   .debug_str:0000000000000e7a .LASF260
     /tmp/ccvRqMu4.s:4442   .debug_str:0000000000000ad6 .LASF261
     /tmp/ccvRqMu4.s:4094   .debug_str:0000000000000038 .LASF262
     /tmp/ccvRqMu4.s:4420   .debug_str:0000000000000a1d .LASF263
     /tmp/ccvRqMu4.s:4116   .debug_str:000000000000011f .LASF264
     /tmp/ccvRqMu4.s:4514   .debug_str:0000000000000d37 .LASF265
     /tmp/ccvRqMu4.s:4646   .debug_str:0000000000001275 .LASF266
     /tmp/ccvRqMu4.s:4440   .debug_str:0000000000000aca .LASF267
     /tmp/ccvRqMu4.s:4528   .debug_str:0000000000000dbc .LASF268
GAS LISTING /tmp/ccvRqMu4.s 			page 22


     /tmp/ccvRqMu4.s:4264   .debug_str:00000000000004f8 .LASF269
     /tmp/ccvRqMu4.s:4088   .debug_str:000000000000000b .LASF271
     /tmp/ccvRqMu4.s:4142   .debug_str:00000000000001e9 .LASF272
     /tmp/ccvRqMu4.s:4240   .debug_str:000000000000046d .LASF273
     /tmp/ccvRqMu4.s:293    .text:00000000000001a0 .LFE106
     /tmp/ccvRqMu4.s:3996   .debug_loc:0000000000000000 .LLST1
     /tmp/ccvRqMu4.s:4270   .debug_str:0000000000000536 .LASF274
     /tmp/ccvRqMu4.s:4003   .debug_loc:0000000000000023 .LLST2
     /tmp/ccvRqMu4.s:4120   .debug_str:000000000000013c .LASF276
     /tmp/ccvRqMu4.s:4180   .debug_str:00000000000002e2 .LASF277
     /tmp/ccvRqMu4.s:4370   .debug_str:000000000000087b .LASF278
     /tmp/ccvRqMu4.s:4124   .debug_str:0000000000000168 .LASF279
     /tmp/ccvRqMu4.s:4612   .debug_str:00000000000010e6 .LASF281
     /tmp/ccvRqMu4.s:4238   .debug_str:0000000000000468 .LASF280
     /tmp/ccvRqMu4.s:4508   .debug_str:0000000000000d0a .LASF282
     /tmp/ccvRqMu4.s:9      .text:0000000000000000 .LFB108
     /tmp/ccvRqMu4.s:40     .text:0000000000000028 .LFE108
     /tmp/ccvRqMu4.s:22     .text:0000000000000010 .LBB22
     /tmp/ccvRqMu4.s:29     .text:0000000000000018 .LBE22
     /tmp/ccvRqMu4.s:4010   .debug_loc:0000000000000046 .LLST0
     /tmp/ccvRqMu4.s:27     .text:0000000000000018 .LVL1
     /tmp/ccvRqMu4.s:84     .text:0000000000000050 .LBB43
     /tmp/ccvRqMu4.s:4076   .debug_ranges:0000000000000000 .Ldebug_ranges0
     /tmp/ccvRqMu4.s:88     .text:0000000000000050 .LBB45
     /tmp/ccvRqMu4.s:102    .text:0000000000000060 .LBE45
     /tmp/ccvRqMu4.s:4020   .debug_loc:000000000000006c .LLST3
     /tmp/ccvRqMu4.s:96     .text:000000000000005c .LVL3
     /tmp/ccvRqMu4.s:276    .text:0000000000000188 .LBB47
     /tmp/ccvRqMu4.s:289    .text:00000000000001a0 .LBE47
     /tmp/ccvRqMu4.s:4028   .debug_loc:0000000000000090 .LLST4
     /tmp/ccvRqMu4.s:282    .text:0000000000000194 .LVL30
     /tmp/ccvRqMu4.s:104    .text:0000000000000068 .LVL5
     /tmp/ccvRqMu4.s:136    .text:00000000000000b4 .LBB50
     /tmp/ccvRqMu4.s:148    .text:00000000000000b8 .LBE50
     /tmp/ccvRqMu4.s:155    .text:00000000000000c4 .LBB52
     /tmp/ccvRqMu4.s:165    .text:00000000000000c8 .LBE52
     /tmp/ccvRqMu4.s:177    .text:00000000000000e0 .LBB54
     /tmp/ccvRqMu4.s:186    .text:00000000000000ec .LBE54
     /tmp/ccvRqMu4.s:4035   .debug_loc:00000000000000b3 .LLST5
     /tmp/ccvRqMu4.s:183    .text:00000000000000ec .LVL17
     /tmp/ccvRqMu4.s:197    .text:0000000000000104 .LBB56
     /tmp/ccvRqMu4.s:206    .text:0000000000000110 .LBE56
     /tmp/ccvRqMu4.s:4042   .debug_loc:00000000000000d6 .LLST6
     /tmp/ccvRqMu4.s:203    .text:0000000000000110 .LVL20
     /tmp/ccvRqMu4.s:217    .text:0000000000000128 .LBB58
     /tmp/ccvRqMu4.s:226    .text:0000000000000134 .LBE58
     /tmp/ccvRqMu4.s:4049   .debug_loc:00000000000000f9 .LLST7
     /tmp/ccvRqMu4.s:223    .text:0000000000000134 .LVL23
     /tmp/ccvRqMu4.s:237    .text:000000000000014c .LBB60
     /tmp/ccvRqMu4.s:246    .text:0000000000000158 .LBE60
     /tmp/ccvRqMu4.s:4056   .debug_loc:000000000000011c .LLST8
     /tmp/ccvRqMu4.s:243    .text:0000000000000158 .LVL26
     /tmp/ccvRqMu4.s:82     .text:0000000000000050 .LVL2
     /tmp/ccvRqMu4.s:113    .text:0000000000000078 .LVL6
     /tmp/ccvRqMu4.s:124    .text:0000000000000098 .LVL8
     /tmp/ccvRqMu4.s:131    .text:00000000000000ac .LVL10
     /tmp/ccvRqMu4.s:153    .text:00000000000000c4 .LVL13
GAS LISTING /tmp/ccvRqMu4.s 			page 23


     /tmp/ccvRqMu4.s:169    .text:00000000000000d0 .LVL14
     /tmp/ccvRqMu4.s:176    .text:00000000000000e0 .LVL16
     /tmp/ccvRqMu4.s:190    .text:00000000000000f4 .LVL18
     /tmp/ccvRqMu4.s:196    .text:0000000000000104 .LVL19
     /tmp/ccvRqMu4.s:210    .text:0000000000000118 .LVL21
     /tmp/ccvRqMu4.s:216    .text:0000000000000128 .LVL22
     /tmp/ccvRqMu4.s:230    .text:000000000000013c .LVL24
     /tmp/ccvRqMu4.s:236    .text:000000000000014c .LVL25
     /tmp/ccvRqMu4.s:251    .text:0000000000000168 .LVL27
     /tmp/ccvRqMu4.s:286    .text:00000000000001a0 .LVL31
     /tmp/ccvRqMu4.s:4242   .debug_str:0000000000000472 .LASF283
     /tmp/ccvRqMu4.s:4156   .debug_str:000000000000023c .LASF284
     /tmp/ccvRqMu4.s:4362   .debug_str:000000000000082b .LASF285
     /tmp/ccvRqMu4.s:4428   .debug_str:0000000000000a61 .LASF287
     /tmp/ccvRqMu4.s:4476   .debug_str:0000000000000c2e .LASF286
     /tmp/ccvRqMu4.s:4626   .debug_str:000000000000114f .LASF288
     /tmp/ccvRqMu4.s:4680   .debug_str:00000000000013a2 .LASF289
     /tmp/ccvRqMu4.s:4184   .debug_str:00000000000002ff .LASF290
     /tmp/ccvRqMu4.s:4374   .debug_str:0000000000000897 .LASF291
     /tmp/ccvRqMu4.s:4458   .debug_str:0000000000000b6b .LASF292
     /tmp/ccvRqMu4.s:4662   .debug_str:0000000000001311 .LASF301
     /tmp/ccvRqMu4.s:4138   .debug_str:00000000000001cc .LASF302
     /tmp/ccvRqMu4.s:126    .text:000000000000009c .LVL9
     /tmp/ccvRqMu4.s:171    .text:00000000000000d4 .LVL15
     /tmp/ccvRqMu4.s:21     .text:0000000000000010 .LVL0
     /tmp/ccvRqMu4.s:99     .text:0000000000000060 .LVL4
     /tmp/ccvRqMu4.s:273    .text:0000000000000188 .LVL29
     /tmp/ccvRqMu4.s:332    .debug_info:0000000000000000 .Ldebug_info0
     /tmp/ccvRqMu4.s:107    .text:0000000000000068 .LBE43
     /tmp/ccvRqMu4.s:274    .text:0000000000000188 .LBB62
     /tmp/ccvRqMu4.s:291    .text:00000000000001a0 .LBE62
     /tmp/ccvRqMu4.s:296    .gcc_except_table:0000000000000000 .LLSDA106

UNDEFINED SYMBOLS
_Z8userMainv
_Z12kprintStringPKc
_Z7kmallocm
_ZN3TCBC1Ev
_ZN3TCB7runningE
_ZN3TCB16createUserThreadEPFvPvES0_
_ZN5Riscv14supervisorTrapEv
_ZN3TCB4joinEv
_ZN15ThreadCollector11getInstanceEv
_ZN15ThreadCollectorD1Ev
_Z5kfreePv
_ZN10IdleThread11getInstanceEv
_ZN10IdleThreadD1Ev
_ZN14TimerInterrupt11getInstanceEv
_ZN14TimerInterruptD1Ev
_ZN9Scheduler11getInstanceEv
_ZN9SchedulerD1Ev
_Unwind_Resume
__gxx_personality_v0
