GAS LISTING /tmp/ccvstXS3.s 			page 1


   1              		.file	"main.cpp"
   2              		.option pic
   3              		.option norelax
   4              		.text
   5              	.Ltext0:
   6              		.align	2
   8              	_ZZ4mainENUlPvE_4_FUNES_:
   9              	.LFB105:
  10              		.file 1 "src/main.cpp"
   1:src/main.cpp  **** #include "../h/TCB.h"
   2:src/main.cpp  **** #include "../h/Riscv.h"
   3:src/main.cpp  **** #include "../h/TimerInterrupt.h"
   4:src/main.cpp  **** #include "../h/SysPrint.h"
   5:src/main.cpp  **** #include "../h/Scheduler.h"
   6:src/main.cpp  **** #include "../h/ThreadCollector.h"
   7:src/main.cpp  **** #include "../h/IdleThread.h"
   8:src/main.cpp  **** 
   9:src/main.cpp  **** void userMain();
  10:src/main.cpp  **** 
  11:src/main.cpp  **** int main() {
  12:src/main.cpp  ****     kprintString("Starting main\n");
  13:src/main.cpp  ****     TCB *main = TCB::createKernelThread();
  14:src/main.cpp  ****     kprintString("Created main thread\n");
  15:src/main.cpp  ****     TCB::running = main;
  16:src/main.cpp  **** 
  17:src/main.cpp  ****     TCB *uMain = TCB::createUserThread([](void *){userMain();}, nullptr);
  11              		.loc 1 17 40
  12              		.cfi_startproc
  13 0000 130101FF 		addi	sp,sp,-16
  14              		.cfi_def_cfa_offset 16
  15 0004 23341100 		sd	ra,8(sp)
  16 0008 23308100 		sd	s0,0(sp)
  17              		.cfi_offset 1, -8
  18              		.cfi_offset 8, -16
  19 000c 13040101 		addi	s0,sp,16
  20              		.cfi_def_cfa 8, 0
  21              	.LVL0:
  22              	.LBB22:
  23              	.LBB23:
  24              		.loc 1 17 51
  25              		.loc 1 17 59 is_stmt 0
  26 0010 97000000 		call	_Z8userMainv@plt
  26      E7800000 
  27              	.LVL1:
  28              	.LBE23:
  29              	.LBE22:
  30              		.loc 1 17 62
  31 0018 83308100 		ld	ra,8(sp)
  32              		.cfi_restore 1
  33 001c 03340100 		ld	s0,0(sp)
  34              		.cfi_restore 8
  35              		.cfi_def_cfa 2, 16
  36 0020 13010101 		addi	sp,sp,16
  37              		.cfi_def_cfa_offset 0
  38 0024 67800000 		jr	ra
  39              		.cfi_endproc
  40              	.LFE105:
GAS LISTING /tmp/ccvstXS3.s 			page 2


  42              		.section	.rodata.str1.8,"aMS",@progbits,1
  43              		.align	3
  44              	.LC0:
  45 0000 53746172 		.string	"Starting main\n"
  45      74696E67 
  45      206D6169 
  45      6E0A00
  46 000f 00       		.align	3
  47              	.LC1:
  48 0010 43726561 		.string	"Created main thread\n"
  48      74656420 
  48      6D61696E 
  48      20746872 
  48      6561640A 
  49 0025 000000   		.align	3
  50              	.LC2:
  51 0028 43726561 		.string	"Created user main thread\n"
  51      74656420 
  51      75736572 
  51      206D6169 
  51      6E207468 
  52 0042 00000000 		.align	3
  52      0000
  53              	.LC3:
  54 0048 4D61696E 		.string	"Main finished\n"
  54      2066696E 
  54      69736865 
  54      640A00
  55              		.text
  56              		.align	2
  57              		.globl	main
  59              	main:
  60              	.LFB103:
  11:src/main.cpp  ****     kprintString("Starting main\n");
  61              		.loc 1 11 12 is_stmt 1
  62              		.cfi_startproc
  63              		.cfi_personality 0x9b,DW.ref.__gxx_personality_v0
  64              		.cfi_lsda 0x1b,.LLSDA103
  65 0028 130101FE 		addi	sp,sp,-32
  66              		.cfi_def_cfa_offset 32
  67 002c 233C1100 		sd	ra,24(sp)
  68 0030 23388100 		sd	s0,16(sp)
  69 0034 23349100 		sd	s1,8(sp)
  70 0038 23302101 		sd	s2,0(sp)
  71              		.cfi_offset 1, -8
  72              		.cfi_offset 8, -16
  73              		.cfi_offset 9, -24
  74              		.cfi_offset 18, -32
  75 003c 13040102 		addi	s0,sp,32
  76              		.cfi_def_cfa 8, 0
  12:src/main.cpp  ****     TCB *main = TCB::createKernelThread();
  77              		.loc 1 12 5
  12:src/main.cpp  ****     TCB *main = TCB::createKernelThread();
  78              		.loc 1 12 17 is_stmt 0
  79 0040 17050000 		lla	a0,.LC0
  79      13050500 
  80              	.LEHB0:
GAS LISTING /tmp/ccvstXS3.s 			page 3


  81 0048 97000000 		call	_Z12kprintStringPKc@plt
  81      E7800000 
  82              	.LVL2:
  13:src/main.cpp  ****     kprintString("Created main thread\n");
  83              		.loc 1 13 5 is_stmt 1
  84              	.LBB43:
  85              	.LBB44:
  86              		.file 2 "src/../h/TCB.h"
   1:src/../h/TCB.h **** //
   2:src/../h/TCB.h **** // Created by xparh on 4/24/2022.
   3:src/../h/TCB.h **** //
   4:src/../h/TCB.h **** 
   5:src/../h/TCB.h **** #ifndef OS1_VEZBE07_RISCV_CONTEXT_SWITCH_1_SYNCHRONOUS_TCB_H
   6:src/../h/TCB.h **** #define OS1_VEZBE07_RISCV_CONTEXT_SWITCH_1_SYNCHRONOUS_TCB_H
   7:src/../h/TCB.h **** 
   8:src/../h/TCB.h **** #include "../lib/hw.h"
   9:src/../h/TCB.h **** #include "KernelObject.h"
  10:src/../h/TCB.h **** #include "List.h"
  11:src/../h/TCB.h **** #include "Mutex.h"
  12:src/../h/TCB.h **** #include "ThreadNode.h"
  13:src/../h/TCB.h **** #include "ThreadList.h"
  14:src/../h/TCB.h **** 
  15:src/../h/TCB.h **** // Thread Control Block
  16:src/../h/TCB.h **** class TCB : public KernelObject {
  17:src/../h/TCB.h **** public:
  18:src/../h/TCB.h ****     using Body = void (*)(void *);
  19:src/../h/TCB.h **** 
  20:src/../h/TCB.h ****     static TCB *createKernelThread(Body body, void *args);
  21:src/../h/TCB.h **** 
  22:src/../h/TCB.h ****     static TCB *createKernelThread(Body body, void *args, uint64 *threadStack);
  23:src/../h/TCB.h **** 
  24:src/../h/TCB.h ****     static TCB *createUserThread(Body body, void *args);
  25:src/../h/TCB.h **** 
  26:src/../h/TCB.h ****     static TCB *createUserThread(Body body, void *args, uint64 *threadStack);
  27:src/../h/TCB.h **** 
  28:src/../h/TCB.h ****     int join();
  29:src/../h/TCB.h **** 
  30:src/../h/TCB.h ****     static void yield() {
  31:src/../h/TCB.h ****         __asm__ volatile ("ecall");
  32:src/../h/TCB.h ****     }
  33:src/../h/TCB.h **** 
  34:src/../h/TCB.h ****     static void dispatch();
  35:src/../h/TCB.h **** 
  36:src/../h/TCB.h ****     static void exit();
  37:src/../h/TCB.h **** 
  38:src/../h/TCB.h ****     bool isBlocked() const {
  39:src/../h/TCB.h ****         return status == BLOCKED;
  40:src/../h/TCB.h ****     }
  41:src/../h/TCB.h **** 
  42:src/../h/TCB.h ****     void setBlocked() {
  43:src/../h/TCB.h ****         status = BLOCKED;
  44:src/../h/TCB.h ****     }
  45:src/../h/TCB.h **** 
  46:src/../h/TCB.h ****     bool isReady() const {
  47:src/../h/TCB.h ****         return status == READY;
  48:src/../h/TCB.h ****     }
  49:src/../h/TCB.h **** 
GAS LISTING /tmp/ccvstXS3.s 			page 4


  50:src/../h/TCB.h ****     void setReady() {
  51:src/../h/TCB.h ****         status = READY;
  52:src/../h/TCB.h ****     }
  53:src/../h/TCB.h **** 
  54:src/../h/TCB.h ****     bool isFinished() const {
  55:src/../h/TCB.h ****         return status == FINISHED;
  56:src/../h/TCB.h ****     }
  57:src/../h/TCB.h **** 
  58:src/../h/TCB.h ****     void setFinished() {
  59:src/../h/TCB.h ****         status = FINISHED;
  60:src/../h/TCB.h ****     }
  61:src/../h/TCB.h **** 
  62:src/../h/TCB.h ****     bool isIdle() const {
  63:src/../h/TCB.h ****         return status == IDLE;
  64:src/../h/TCB.h ****     }
  65:src/../h/TCB.h **** 
  66:src/../h/TCB.h ****     void setIdle() {
  67:src/../h/TCB.h ****         status = IDLE;
  68:src/../h/TCB.h ****     }
  69:src/../h/TCB.h **** 
  70:src/../h/TCB.h ****     uint64 getTimeSlice() const {
  71:src/../h/TCB.h ****         return timeSlice;
  72:src/../h/TCB.h ****     }
  73:src/../h/TCB.h **** 
  74:src/../h/TCB.h ****     time_t getBlockedTime() const {
  75:src/../h/TCB.h ****         return blockedTime;
  76:src/../h/TCB.h ****     }
  77:src/../h/TCB.h **** 
  78:src/../h/TCB.h ****     void setBlockedTime(time_t blockedTime) {
  79:src/../h/TCB.h ****         this->blockedTime = blockedTime;
  80:src/../h/TCB.h ****     }
  81:src/../h/TCB.h **** 
  82:src/../h/TCB.h ****     void decBlockedTime(time_t time = 1) {
  83:src/../h/TCB.h ****         this->blockedTime -= time;
  84:src/../h/TCB.h ****     }
  85:src/../h/TCB.h **** 
  86:src/../h/TCB.h ****     const Mutex *getMutex() const {
  87:src/../h/TCB.h ****         return &mutex;
  88:src/../h/TCB.h ****     }
  89:src/../h/TCB.h **** 
  90:src/../h/TCB.h ****     uint64 getSsp() const {
  91:src/../h/TCB.h ****         return ssp;
  92:src/../h/TCB.h ****     }
  93:src/../h/TCB.h **** 
  94:src/../h/TCB.h ****     uint64 getSavedContext() const {
  95:src/../h/TCB.h ****         return (uint64) (kernelStack + DEFAULT_STACK_SIZE - 32);
  96:src/../h/TCB.h ****     }
  97:src/../h/TCB.h **** 
  98:src/../h/TCB.h ****     uint64 *getThreadStack() const {
  99:src/../h/TCB.h ****         return threadStack;
 100:src/../h/TCB.h ****     };
 101:src/../h/TCB.h **** 
 102:src/../h/TCB.h ****     ThreadNode *getNode() {
 103:src/../h/TCB.h ****         return &node;
 104:src/../h/TCB.h ****     }
 105:src/../h/TCB.h **** 
 106:src/../h/TCB.h ****     static TCB *createKernelThread() {
GAS LISTING /tmp/ccvstXS3.s 			page 5


 107:src/../h/TCB.h ****         return new TCB();
  87              		.loc 2 107 9
  88              	.LBB45:
  89              	.LBB46:
  90              		.file 3 "src/../h/KernelObject.h"
   1:src/../h/KernelObject.h **** #ifndef _KERNEL_OBJECT_H
   2:src/../h/KernelObject.h **** #define _KERNEL_OBJECT_H
   3:src/../h/KernelObject.h **** 
   4:src/../h/KernelObject.h **** //#include "MemoryAllocator.h"
   5:src/../h/KernelObject.h **** #include "../lib/hw.h"
   6:src/../h/KernelObject.h **** extern void *kmalloc(size_t);
   7:src/../h/KernelObject.h **** extern int kfree(void *);
   8:src/../h/KernelObject.h **** 
   9:src/../h/KernelObject.h **** class KernelObject {
  10:src/../h/KernelObject.h **** public:
  11:src/../h/KernelObject.h ****     static void *operator new(size_t size) {
  12:src/../h/KernelObject.h ****         size = (size - 1) / MEM_BLOCK_SIZE + 1;
  91              		.loc 3 12 9
  13:src/../h/KernelObject.h ****         return kmalloc(size);
  92              		.loc 3 13 9
  93              		.loc 3 13 23 is_stmt 0
  94 0050 13054000 		li	a0,4
  95 0054 97000000 		call	_Z7kmallocm@plt
  95      E7800000 
  96              	.LVL3:
  97              	.LEHE0:
  98 005c 93040500 		mv	s1,a0
  99              	.LVL4:
 100              	.LEHB1:
 101              	.LBE46:
 102              	.LBE45:
 103 0060 97000000 		call	_ZN3TCBC1Ev@plt
 103      E7800000 
 104              	.LVL5:
 105              	.LEHE1:
 106              	.LBE44:
 107              	.LBE43:
  14:src/main.cpp  ****     TCB::running = main;
 108              		.loc 1 14 5 is_stmt 1
  14:src/main.cpp  ****     TCB::running = main;
 109              		.loc 1 14 17 is_stmt 0
 110 0068 17050000 		lla	a0,.LC1
 110      13050500 
 111              	.LEHB2:
 112 0070 97000000 		call	_Z12kprintStringPKc@plt
 112      E7800000 
 113              	.LVL6:
  15:src/main.cpp  **** 
 114              		.loc 1 15 5 is_stmt 1
  15:src/main.cpp  **** 
 115              		.loc 1 15 18 is_stmt 0
 116 0078 97070000 		la	a5,_ZN3TCB7runningE
 116      83B70700 
 117 0080 23B09700 		sd	s1,0(a5)
 118              		.loc 1 17 5 is_stmt 1
 119              	.LVL7:
 120              		.loc 1 17 39 is_stmt 0
GAS LISTING /tmp/ccvstXS3.s 			page 6


 121 0084 93050000 		li	a1,0
 122 0088 17050000 		lla	a0,_ZZ4mainENUlPvE_4_FUNES_
 122      13050500 
 123 0090 97000000 		call	_ZN3TCB16createUserThreadEPFvPvES0_@plt
 123      E7800000 
 124              	.LVL8:
 125 0098 93040500 		mv	s1,a0
 126              	.LVL9:
  18:src/main.cpp  ****     kprintString("Created user main thread\n");
 127              		.loc 1 18 5 is_stmt 1
 128              		.loc 1 18 17 is_stmt 0
 129 009c 17050000 		lla	a0,.LC2
 129      13050500 
 130 00a4 97000000 		call	_Z12kprintStringPKc@plt
 130      E7800000 
 131              	.LVL10:
  19:src/main.cpp  **** 
  20:src/main.cpp  ****     Riscv::w_stvec((uint64) &Riscv::supervisorTrap);
 132              		.loc 1 20 5 is_stmt 1
 133              		.loc 1 20 19 is_stmt 0
 134 00ac 97070000 		la	a5,_ZN5Riscv14supervisorTrapEv
 134      83B70700 
 135              	.LVL11:
 136              	.LBB50:
 137              	.LBB51:
 138              		.file 4 "src/../h/Riscv.h"
   1:src/../h/Riscv.h **** #ifndef _RISCV_H
   2:src/../h/Riscv.h **** #define _RISCV_H
   3:src/../h/Riscv.h **** 
   4:src/../h/Riscv.h **** #include "../lib/hw.h"
   5:src/../h/Riscv.h **** 
   6:src/../h/Riscv.h **** #define lock()                  \
   7:src/../h/Riscv.h ****     volatile uint64 sstatus = Riscv::r_sstatus(); \
   8:src/../h/Riscv.h ****     Riscv::disableInterrupts(); \
   9:src/../h/Riscv.h **** 
  10:src/../h/Riscv.h **** #define unlock()                \
  11:src/../h/Riscv.h ****     Riscv::w_sstatus(sstatus);  \
  12:src/../h/Riscv.h **** 
  13:src/../h/Riscv.h **** 
  14:src/../h/Riscv.h **** class Riscv {
  15:src/../h/Riscv.h **** public:
  16:src/../h/Riscv.h **** 
  17:src/../h/Riscv.h ****     // disables interrupts
  18:src/../h/Riscv.h ****     static void disableInterrupts();
  19:src/../h/Riscv.h **** 
  20:src/../h/Riscv.h ****     // enables interrupts
  21:src/../h/Riscv.h ****     static void enableInterrupts();
  22:src/../h/Riscv.h **** 
  23:src/../h/Riscv.h ****     // pop sstatus.spp and sstatus.spie bits (has to be a non inline function)
  24:src/../h/Riscv.h ****     static void popSppSpie(bool prMode);
  25:src/../h/Riscv.h **** 
  26:src/../h/Riscv.h ****     // push a0 to saved contex
  27:src/../h/Riscv.h ****     static void pushRegisterA0(uint64 context);
  28:src/../h/Riscv.h **** 
  29:src/../h/Riscv.h ****     // push a1 to saved contex
  30:src/../h/Riscv.h ****     static void pushRegisterA1(uint64 context);
  31:src/../h/Riscv.h **** 
GAS LISTING /tmp/ccvstXS3.s 			page 7


  32:src/../h/Riscv.h ****     // read register sp
  33:src/../h/Riscv.h ****     static uint64 r_sp();
  34:src/../h/Riscv.h **** 
  35:src/../h/Riscv.h ****     // write register sp
  36:src/../h/Riscv.h ****     static void w_sp(uint64 sp);
  37:src/../h/Riscv.h **** 
  38:src/../h/Riscv.h ****     // read old frame pointer
  39:src/../h/Riscv.h ****     static uint64 r_ps0();
  40:src/../h/Riscv.h **** 
  41:src/../h/Riscv.h ****     // read frame pointer
  42:src/../h/Riscv.h ****     static uint64 r_s0();
  43:src/../h/Riscv.h **** 
  44:src/../h/Riscv.h ****     // read register a0
  45:src/../h/Riscv.h ****     static uint64 r_a0();
  46:src/../h/Riscv.h **** 
  47:src/../h/Riscv.h ****     // write register a0
  48:src/../h/Riscv.h ****     static void w_a0(uint64 a0);
  49:src/../h/Riscv.h **** 
  50:src/../h/Riscv.h ****     // read register a1
  51:src/../h/Riscv.h ****     static uint64 r_a1();
  52:src/../h/Riscv.h **** 
  53:src/../h/Riscv.h ****     // write register a1
  54:src/../h/Riscv.h ****     static void w_a1(uint64 a1);
  55:src/../h/Riscv.h **** 
  56:src/../h/Riscv.h ****     // read register a2
  57:src/../h/Riscv.h ****     static uint64 r_a2();
  58:src/../h/Riscv.h **** 
  59:src/../h/Riscv.h ****     // write register a2
  60:src/../h/Riscv.h ****     static void w_a2(uint64 a2);
  61:src/../h/Riscv.h **** 
  62:src/../h/Riscv.h ****     // read register scause
  63:src/../h/Riscv.h ****     static uint64 r_scause();
  64:src/../h/Riscv.h **** 
  65:src/../h/Riscv.h ****     // write register scause
  66:src/../h/Riscv.h ****     static void w_scause(uint64 scause);
  67:src/../h/Riscv.h **** 
  68:src/../h/Riscv.h ****     // read register sepc
  69:src/../h/Riscv.h ****     static uint64 r_sepc();
  70:src/../h/Riscv.h **** 
  71:src/../h/Riscv.h ****     // write register sepc
  72:src/../h/Riscv.h ****     static void w_sepc(uint64 sepc);
  73:src/../h/Riscv.h **** 
  74:src/../h/Riscv.h ****     // read register stvec
  75:src/../h/Riscv.h ****     static uint64 r_stvec();
  76:src/../h/Riscv.h **** 
  77:src/../h/Riscv.h ****     // write register stvec
  78:src/../h/Riscv.h ****     static void w_stvec(uint64 stvec);
  79:src/../h/Riscv.h **** 
  80:src/../h/Riscv.h ****     // read register stval
  81:src/../h/Riscv.h ****     static uint64 r_stval();
  82:src/../h/Riscv.h **** 
  83:src/../h/Riscv.h ****     // write register stval
  84:src/../h/Riscv.h ****     static void w_stval(uint64 stval);
  85:src/../h/Riscv.h **** 
  86:src/../h/Riscv.h ****     enum BitMaskSip {
  87:src/../h/Riscv.h ****         SIP_SSIP = (1 << 1),
  88:src/../h/Riscv.h ****         SIP_STIP = (1 << 5),
GAS LISTING /tmp/ccvstXS3.s 			page 8


  89:src/../h/Riscv.h ****         SIP_SEIP = (1 << 9)
  90:src/../h/Riscv.h ****     };
  91:src/../h/Riscv.h **** 
  92:src/../h/Riscv.h ****     // mask set register sip
  93:src/../h/Riscv.h ****     static void ms_sip(uint64 mask);
  94:src/../h/Riscv.h **** 
  95:src/../h/Riscv.h ****     // mask clear register sip
  96:src/../h/Riscv.h ****     static void mc_sip(uint64 mask);
  97:src/../h/Riscv.h **** 
  98:src/../h/Riscv.h ****     // read register sip
  99:src/../h/Riscv.h ****     static uint64 r_sip();
 100:src/../h/Riscv.h **** 
 101:src/../h/Riscv.h ****     // write register sip
 102:src/../h/Riscv.h ****     static void w_sip(uint64 sip);
 103:src/../h/Riscv.h **** 
 104:src/../h/Riscv.h ****     enum BitMaskSstatus {
 105:src/../h/Riscv.h ****         SSTATUS_SIE = (1 << 1),
 106:src/../h/Riscv.h ****         SSTATUS_SPIE = (1 << 5),
 107:src/../h/Riscv.h ****         SSTATUS_SPP = (1 << 8)
 108:src/../h/Riscv.h ****     };
 109:src/../h/Riscv.h **** 
 110:src/../h/Riscv.h ****     // mask set register sstatus
 111:src/../h/Riscv.h ****     static void ms_sstatus(uint64 mask);
 112:src/../h/Riscv.h **** 
 113:src/../h/Riscv.h ****     // mask clear register sstatus
 114:src/../h/Riscv.h ****     static void mc_sstatus(uint64 mask);
 115:src/../h/Riscv.h **** 
 116:src/../h/Riscv.h ****     // read register sstatus
 117:src/../h/Riscv.h ****     static uint64 r_sstatus();
 118:src/../h/Riscv.h **** 
 119:src/../h/Riscv.h ****     // write register sstatus
 120:src/../h/Riscv.h ****     static void w_sstatus(uint64 sstatus);
 121:src/../h/Riscv.h **** 
 122:src/../h/Riscv.h ****     // supervisor trap
 123:src/../h/Riscv.h ****     static void supervisorTrap();
 124:src/../h/Riscv.h **** 
 125:src/../h/Riscv.h **** private:
 126:src/../h/Riscv.h ****     // supervisor trap handler
 127:src/../h/Riscv.h ****     static void handleSupervisorTrap();
 128:src/../h/Riscv.h **** };
 129:src/../h/Riscv.h **** 
 130:src/../h/Riscv.h **** 
 131:src/../h/Riscv.h **** inline uint64 Riscv::r_sp() {
 132:src/../h/Riscv.h ****     uint64 volatile sp;
 133:src/../h/Riscv.h ****     __asm__ volatile ("mv %[sp], sp" : [sp] "=r"(sp));
 134:src/../h/Riscv.h ****     return sp;
 135:src/../h/Riscv.h **** }
 136:src/../h/Riscv.h **** 
 137:src/../h/Riscv.h **** inline void Riscv::w_sp(uint64 sp) {
 138:src/../h/Riscv.h ****     __asm__ volatile ("mv sp, %[sp]" : : [sp] "r"(sp));
 139:src/../h/Riscv.h **** }
 140:src/../h/Riscv.h **** 
 141:src/../h/Riscv.h **** inline uint64 Riscv::r_ps0() {
 142:src/../h/Riscv.h ****     uint64 volatile ps0, s0 = r_s0() - 8;
 143:src/../h/Riscv.h ****     __asm__ volatile ("mv %[ps0], %[s0]" : [ps0] "=r"(ps0) : [s0] "r"(s0));
 144:src/../h/Riscv.h ****     return ps0;
 145:src/../h/Riscv.h **** }
GAS LISTING /tmp/ccvstXS3.s 			page 9


 146:src/../h/Riscv.h **** 
 147:src/../h/Riscv.h **** inline uint64 Riscv::r_s0() {
 148:src/../h/Riscv.h ****     uint64 volatile s0;
 149:src/../h/Riscv.h ****     __asm__ volatile ("mv %[s0], s0" : [s0] "=r"(s0));
 150:src/../h/Riscv.h ****     return s0;
 151:src/../h/Riscv.h **** }
 152:src/../h/Riscv.h **** 
 153:src/../h/Riscv.h **** inline uint64 Riscv::r_a0() {
 154:src/../h/Riscv.h ****     uint64 volatile a0;
 155:src/../h/Riscv.h ****     __asm__ volatile ("mv %[a0], a0" : [a0] "=r"(a0));
 156:src/../h/Riscv.h ****     return a0;
 157:src/../h/Riscv.h **** }
 158:src/../h/Riscv.h **** 
 159:src/../h/Riscv.h **** inline void Riscv::w_a0(uint64 a0) {
 160:src/../h/Riscv.h ****     __asm__ volatile ("mv a0, %[a0]" : : [a0] "r"(a0));
 161:src/../h/Riscv.h **** }
 162:src/../h/Riscv.h **** 
 163:src/../h/Riscv.h **** inline uint64 Riscv::r_a1() {
 164:src/../h/Riscv.h ****     uint64 volatile a1;
 165:src/../h/Riscv.h ****     __asm__ volatile ("mv %[a1], a1" : [a1] "=r"(a1));
 166:src/../h/Riscv.h ****     return a1;
 167:src/../h/Riscv.h **** }
 168:src/../h/Riscv.h **** 
 169:src/../h/Riscv.h **** inline void Riscv::w_a1(uint64 a1) {
 170:src/../h/Riscv.h ****     __asm__ volatile ("mv a1, %[a1]" : : [a1] "r"(a1));
 171:src/../h/Riscv.h **** }
 172:src/../h/Riscv.h **** 
 173:src/../h/Riscv.h **** inline uint64 Riscv::r_a2() {
 174:src/../h/Riscv.h ****     uint64 volatile a2;
 175:src/../h/Riscv.h ****     __asm__ volatile ("mv %[a2], a2" : [a2] "=r"(a2));
 176:src/../h/Riscv.h ****     return a2;
 177:src/../h/Riscv.h **** }
 178:src/../h/Riscv.h **** 
 179:src/../h/Riscv.h **** inline void Riscv::w_a2(uint64 a2) {
 180:src/../h/Riscv.h ****     __asm__ volatile ("mv a2, %[a2]" : : [a2] "r"(a2));
 181:src/../h/Riscv.h **** }
 182:src/../h/Riscv.h **** 
 183:src/../h/Riscv.h **** inline uint64 Riscv::r_scause() {
 184:src/../h/Riscv.h ****     uint64 volatile scause;
 185:src/../h/Riscv.h ****     __asm__ volatile ("csrr %[scause], scause" : [scause] "=r"(scause));
 186:src/../h/Riscv.h ****     return scause;
 187:src/../h/Riscv.h **** }
 188:src/../h/Riscv.h **** 
 189:src/../h/Riscv.h **** inline void Riscv::w_scause(uint64 scause) {
 190:src/../h/Riscv.h ****     __asm__ volatile ("csrw scause, %[scause]" : : [scause] "r"(scause));
 191:src/../h/Riscv.h **** }
 192:src/../h/Riscv.h **** 
 193:src/../h/Riscv.h **** inline uint64 Riscv::r_sepc() {
 194:src/../h/Riscv.h ****     uint64 volatile sepc;
 195:src/../h/Riscv.h ****     __asm__ volatile ("csrr %[sepc], sepc" : [sepc] "=r"(sepc));
 196:src/../h/Riscv.h ****     return sepc;
 197:src/../h/Riscv.h **** }
 198:src/../h/Riscv.h **** 
 199:src/../h/Riscv.h **** inline void Riscv::w_sepc(uint64 sepc) {
 200:src/../h/Riscv.h ****     __asm__ volatile ("csrw sepc, %[sepc]" : : [sepc] "r"(sepc));
 201:src/../h/Riscv.h **** }
 202:src/../h/Riscv.h **** 
GAS LISTING /tmp/ccvstXS3.s 			page 10


 203:src/../h/Riscv.h **** inline uint64 Riscv::r_stvec() {
 204:src/../h/Riscv.h ****     uint64 volatile stvec;
 205:src/../h/Riscv.h ****     __asm__ volatile ("csrr %[stvec], stvec" : [stvec] "=r"(stvec));
 206:src/../h/Riscv.h ****     return stvec;
 207:src/../h/Riscv.h **** }
 208:src/../h/Riscv.h **** 
 209:src/../h/Riscv.h **** inline void Riscv::w_stvec(uint64 stvec) {
 210:src/../h/Riscv.h ****     __asm__ volatile ("csrw stvec, %[stvec]" : : [stvec] "r"(stvec));
 139              		.loc 4 210 5 is_stmt 1
 140              		.loc 4 210 69 is_stmt 0
 141              	#APP
 142              	# 210 "src/../h/Riscv.h" 1
 211              	}
 143              		csrw stvec, a5
 144              	# 0 "" 2
 145              	.LVL12:
 146              	#NO_APP
 147              	.LBE51:
 148              	.LBE50:
  21:src/main.cpp  **** 
  22:src/main.cpp  ****     uMain->join();
 149              		.loc 1 22 5 is_stmt 1
 150              		.loc 1 22 16 is_stmt 0
 151 00b8 13850400 		mv	a0,s1
 152 00bc 97000000 		call	_ZN3TCB4joinEv@plt
 152      E7800000 
 153              	.LVL13:
  23:src/main.cpp  ****     TCB::yield();
 154              		.loc 1 23 5 is_stmt 1
 155              	.LBB52:
 156              	.LBB53:
  31:src/../h/TCB.h ****     }
 157              		.loc 2 31 9
  31:src/../h/TCB.h ****     }
 158              		.loc 2 31 35 is_stmt 0
 159              	#APP
 160              	# 31 "src/../h/TCB.h" 1
 161              		ecall
 162              	# 0 "" 2
 163              	#NO_APP
 164              	.LBE53:
 165              	.LBE52:
  24:src/main.cpp  **** 
  25:src/main.cpp  ****     delete ThreadCollector::getInstance();
 166              		.loc 1 25 5 is_stmt 1
 167              		.loc 1 25 40 is_stmt 0
 168 00c8 97000000 		call	_ZN15ThreadCollector11getInstanceEv@plt
 168      E7800000 
 169              	.LVL14:
 170 00d0 93040500 		mv	s1,a0
 171              	.LVL15:
 172              		.loc 1 25 42
 173 00d4 630C0500 		beqz	a0,.L5
 174              		.loc 1 25 41 discriminator 1
 175 00d8 97000000 		call	_ZN15ThreadCollectorD1Ev@plt
 175      E7800000 
 176              	.LVL16:
GAS LISTING /tmp/ccvstXS3.s 			page 11


 177              	.LBB54:
 178              	.LBB55:
  14:src/../h/KernelObject.h ****     }
  15:src/../h/KernelObject.h **** 
  16:src/../h/KernelObject.h ****     static void *operator new[](size_t size) {
  17:src/../h/KernelObject.h ****         size = (size - 1) / MEM_BLOCK_SIZE + 1;
  18:src/../h/KernelObject.h ****         return kmalloc(size);
  19:src/../h/KernelObject.h ****     }
  20:src/../h/KernelObject.h **** 
  21:src/../h/KernelObject.h ****     static void operator delete(void *addr) {
  22:src/../h/KernelObject.h ****         kfree(addr);
 179              		.loc 3 22 9 is_stmt 1 discriminator 1
 180              		.loc 3 22 14 is_stmt 0 discriminator 1
 181 00e0 13850400 		mv	a0,s1
 182 00e4 97000000 		call	_Z5kfreePv@plt
 182      E7800000 
 183              	.LVL17:
 184              	.L5:
 185              	.LBE55:
 186              	.LBE54:
  26:src/main.cpp  ****     delete IdleThread::getInstance();
 187              		.loc 1 26 5 is_stmt 1
 188              		.loc 1 26 35 is_stmt 0
 189 00ec 97000000 		call	_ZN10IdleThread11getInstanceEv@plt
 189      E7800000 
 190              	.LVL18:
 191 00f4 93040500 		mv	s1,a0
 192              		.loc 1 26 37
 193 00f8 630C0500 		beqz	a0,.L7
 194              		.loc 1 26 36 discriminator 1
 195 00fc 97000000 		call	_ZN10IdleThreadD1Ev@plt
 195      E7800000 
 196              	.LVL19:
 197              	.LBB56:
 198              	.LBB57:
 199              		.loc 3 22 9 is_stmt 1 discriminator 1
 200              		.loc 3 22 14 is_stmt 0 discriminator 1
 201 0104 13850400 		mv	a0,s1
 202 0108 97000000 		call	_Z5kfreePv@plt
 202      E7800000 
 203              	.LVL20:
 204              	.L7:
 205              	.LBE57:
 206              	.LBE56:
  27:src/main.cpp  ****     delete TimerInterrupt::getInstance();
 207              		.loc 1 27 5 is_stmt 1
 208              		.loc 1 27 39 is_stmt 0
 209 0110 97000000 		call	_ZN14TimerInterrupt11getInstanceEv@plt
 209      E7800000 
 210              	.LVL21:
 211 0118 93040500 		mv	s1,a0
 212              		.loc 1 27 41
 213 011c 630C0500 		beqz	a0,.L8
 214              		.loc 1 27 40 discriminator 1
 215 0120 97000000 		call	_ZN14TimerInterruptD1Ev@plt
 215      E7800000 
 216              	.LVL22:
GAS LISTING /tmp/ccvstXS3.s 			page 12


 217              	.LBB58:
 218              	.LBB59:
 219              		.loc 3 22 9 is_stmt 1 discriminator 1
 220              		.loc 3 22 14 is_stmt 0 discriminator 1
 221 0128 13850400 		mv	a0,s1
 222 012c 97000000 		call	_Z5kfreePv@plt
 222      E7800000 
 223              	.LVL23:
 224              	.L8:
 225              	.LBE59:
 226              	.LBE58:
  28:src/main.cpp  ****     delete Scheduler::getInstance();
 227              		.loc 1 28 5 is_stmt 1
 228              		.loc 1 28 34 is_stmt 0
 229 0134 97000000 		call	_ZN9Scheduler11getInstanceEv@plt
 229      E7800000 
 230              	.LVL24:
 231 013c 93040500 		mv	s1,a0
 232              		.loc 1 28 36
 233 0140 630C0500 		beqz	a0,.L9
 234              		.loc 1 28 35 discriminator 1
 235 0144 97000000 		call	_ZN9SchedulerD1Ev@plt
 235      E7800000 
 236              	.LVL25:
 237              	.LBB60:
 238              	.LBB61:
 239              		.loc 3 22 9 is_stmt 1 discriminator 1
 240              		.loc 3 22 14 is_stmt 0 discriminator 1
 241 014c 13850400 		mv	a0,s1
 242 0150 97000000 		call	_Z5kfreePv@plt
 242      E7800000 
 243              	.LVL26:
 244              	.L9:
 245              	.LBE61:
 246              	.LBE60:
  29:src/main.cpp  **** 
  30:src/main.cpp  ****     kprintString("Main finished\n");
 247              		.loc 1 30 5 is_stmt 1
 248              		.loc 1 30 17 is_stmt 0
 249 0158 17050000 		lla	a0,.LC3
 249      13050500 
 250 0160 97000000 		call	_Z12kprintStringPKc@plt
 250      E7800000 
 251              	.LVL27:
 252              	.LEHE2:
  31:src/main.cpp  **** 
  32:src/main.cpp  ****     return 0;
 253              		.loc 1 32 5 is_stmt 1
  33:src/main.cpp  **** }
 254              		.loc 1 33 1 is_stmt 0
 255 0168 13050000 		li	a0,0
 256 016c 83308101 		ld	ra,24(sp)
 257              		.cfi_remember_state
 258              		.cfi_restore 1
 259 0170 03340101 		ld	s0,16(sp)
 260              		.cfi_restore 8
 261              		.cfi_def_cfa 2, 32
GAS LISTING /tmp/ccvstXS3.s 			page 13


 262 0174 83348100 		ld	s1,8(sp)
 263              		.cfi_restore 9
 264 0178 03390100 		ld	s2,0(sp)
 265              		.cfi_restore 18
 266 017c 13010102 		addi	sp,sp,32
 267              		.cfi_def_cfa_offset 0
 268 0180 67800000 		jr	ra
 269              	.LVL28:
 270              	.L10:
 271              		.cfi_restore_state
 272 0184 13090500 		mv	s2,a0
 273              	.LVL29:
 274              	.LBB62:
 275              	.LBB49:
 276              	.LBB47:
 277              	.LBB48:
 278              		.loc 3 22 9 is_stmt 1
 279              		.loc 3 22 14 is_stmt 0
 280 0188 13850400 		mv	a0,s1
 281 018c 97000000 		call	_Z5kfreePv@plt
 281      E7800000 
 282              	.LVL30:
 283 0194 13050900 		mv	a0,s2
 284              	.LEHB3:
 285 0198 97000000 		call	_Unwind_Resume@plt
 285      E7800000 
 286              	.LVL31:
 287              	.LEHE3:
 288              	.LBE48:
 289              	.LBE47:
 290              	.LBE49:
 291              	.LBE62:
 292              		.cfi_endproc
 293              	.LFE103:
 294              		.globl	__gxx_personality_v0
 295              		.section	.gcc_except_table,"a",@progbits
 296              	.LLSDA103:
 297 0000 FF       		.byte	0xff
 298 0001 FF       		.byte	0xff
 299 0002 03       		.byte	0x3
 300 0003 34       		.byte	0x34
 301 0004 00000000 		.4byte	.LEHB0-.LFB103
 302 0008 00000000 		.4byte	.LEHE0-.LEHB0
 303 000c 00000000 		.4byte	0
 304 0010 00       		.byte	0
 305 0011 00000000 		.4byte	.LEHB1-.LFB103
 306 0015 00000000 		.4byte	.LEHE1-.LEHB1
 307 0019 00000000 		.4byte	.L10-.LFB103
 308 001d 00       		.byte	0
 309 001e 00000000 		.4byte	.LEHB2-.LFB103
 310 0022 00000000 		.4byte	.LEHE2-.LEHB2
 311 0026 00000000 		.4byte	0
 312 002a 00       		.byte	0
 313 002b 00000000 		.4byte	.LEHB3-.LFB103
 314 002f 00000000 		.4byte	.LEHE3-.LEHB3
 315 0033 00000000 		.4byte	0
 316 0037 00       		.byte	0
GAS LISTING /tmp/ccvstXS3.s 			page 14


 317              		.text
 319              	.Letext0:
 320              		.file 5 "src/../h/../lib/hw.h"
 321              		.file 6 "src/../h/ThreadNode.h"
 322              		.file 7 "src/../h/ThreadList.h"
 323              		.file 8 "src/../h/TimerInterrupt.h"
 324              		.file 9 "src/../h/Scheduler.h"
 325              		.file 10 "src/../h/ThreadCollector.h"
 326              		.file 11 "src/../h/IdleThread.h"
 327              		.file 12 "src/../h/SysPrint.h"
 4422              		.align	3
 4425              	DW.ref.__gxx_personality_v0:
 4426 0000 00000000 		.dword	__gxx_personality_v0
 4426      00000000 
 4427              		.ident	"GCC: (Ubuntu 9.4.0-1ubuntu1~20.04) 9.4.0"
 4428              		.section	.note.GNU-stack,"",@progbits
GAS LISTING /tmp/ccvstXS3.s 			page 15

