GAS LISTING /tmp/cczm76Go.s 			page 1


   1              		.file	"MemoryAllocator.cpp"
   2              		.option pic
   3              		.option norelax
   4              		.text
   5              	.Ltext0:
   6              		.align	2
   7              		.globl	_ZN15MemoryAllocator19initMemoryAllocatorEv
   9              	_ZN15MemoryAllocator19initMemoryAllocatorEv:
  10              	.LFB36:
  11              		.file 1 "src/MemoryAllocator.cpp"
   1:src/MemoryAllocator.cpp **** #include "../h/MemoryAllocator.h"
   2:src/MemoryAllocator.cpp **** #include "../h/SysPrint.h"
   3:src/MemoryAllocator.cpp **** #include "../h/Mutex.h"
   4:src/MemoryAllocator.cpp **** 
   5:src/MemoryAllocator.cpp **** MemoryAllocator *MemoryAllocator::instance = nullptr;
   6:src/MemoryAllocator.cpp **** 
   7:src/MemoryAllocator.cpp **** void MemoryAllocator::initMemoryAllocator() {
  12              		.loc 1 7 45
  13              		.cfi_startproc
  14 0000 130101FF 		addi	sp,sp,-16
  15              		.cfi_def_cfa_offset 16
  16 0004 23348100 		sd	s0,8(sp)
  17              		.cfi_offset 8, -8
  18 0008 13040101 		addi	s0,sp,16
  19              		.cfi_def_cfa 8, 0
   8:src/MemoryAllocator.cpp ****     instance = (MemoryAllocator *) HEAP_START_ADDR;
  20              		.loc 1 8 5
  21              		.loc 1 8 14 is_stmt 0
  22 000c 17060000 		la	a2,HEAP_START_ADDR
  22      03360600 
  23 0014 83370600 		ld	a5,0(a2)
  24 0018 17070000 		lla	a4,.LANCHOR0
  24      13070700 
  25 0020 2330F700 		sd	a5,0(a4)
   9:src/MemoryAllocator.cpp **** 
  10:src/MemoryAllocator.cpp ****     instance->mutex = (Mutex *) ((uint8 *) HEAP_START_ADDR + sizeof(MemoryAllocator));
  26              		.loc 1 10 5 is_stmt 1
  27              		.loc 1 10 23 is_stmt 0
  28 0024 93860701 		addi	a3,a5,16
  29              		.loc 1 10 21
  30 0028 23B4D700 		sd	a3,8(a5)
  11:src/MemoryAllocator.cpp ****     instance->mutex->val = 1;
  31              		.loc 1 11 5 is_stmt 1
  32              		.loc 1 11 26 is_stmt 0
  33 002c 93061000 		li	a3,1
  34 0030 23A8D700 		sw	a3,16(a5)
  12:src/MemoryAllocator.cpp ****     instance->freeMemHead = (BlockHeader *) ((uint8 *) HEAP_START_ADDR + sizeof(MemoryAllocator) + 
  35              		.loc 1 12 5 is_stmt 1
  36              		.loc 1 12 29 is_stmt 0
  37 0034 93850704 		addi	a1,a5,64
  38              		.loc 1 12 27
  39 0038 23B0B700 		sd	a1,0(a5)
  13:src/MemoryAllocator.cpp ****     instance->freeMemHead->size = (size_t) ((uint8 *) HEAP_END_ADDR - (uint8 *) HEAP_START_ADDR -
  40              		.loc 1 13 5 is_stmt 1
  41              		.loc 1 13 45 is_stmt 0
  42 003c 97070000 		la	a5,HEAP_END_ADDR
  42      83B70700 
GAS LISTING /tmp/cczm76Go.s 			page 2


  43 0044 83B70700 		ld	a5,0(a5)
  44              		.loc 1 13 71
  45 0048 03360600 		ld	a2,0(a2)
  46              		.loc 1 13 69
  47 004c B387C740 		sub	a5,a5,a2
  48              		.loc 1 13 15
  49 0050 03360700 		ld	a2,0(a4)
  50 0054 03360600 		ld	a2,0(a2)
  14:src/MemoryAllocator.cpp ****                                   sizeof(MemoryAllocator) - sizeof(BlockHeader) - sizeof(Mutex));
  51              		.loc 1 14 81
  52 0058 938787FA 		addi	a5,a5,-88
  13:src/MemoryAllocator.cpp ****     instance->freeMemHead->size = (size_t) ((uint8 *) HEAP_END_ADDR - (uint8 *) HEAP_START_ADDR -
  53              		.loc 1 13 33
  54 005c 2330F600 		sd	a5,0(a2)
  15:src/MemoryAllocator.cpp ****     instance->freeMemHead->free = true;
  55              		.loc 1 15 5 is_stmt 1
  56              		.loc 1 15 15 is_stmt 0
  57 0060 83370700 		ld	a5,0(a4)
  58 0064 03B70700 		ld	a4,0(a5)
  59              		.loc 1 15 33
  60 0068 2304D700 		sb	a3,8(a4)
  16:src/MemoryAllocator.cpp ****     instance->freeMemHead->next = nullptr;
  61              		.loc 1 16 5 is_stmt 1
  62              		.loc 1 16 15 is_stmt 0
  63 006c 83B70700 		ld	a5,0(a5)
  64              		.loc 1 16 33
  65 0070 23B80700 		sd	zero,16(a5)
  17:src/MemoryAllocator.cpp **** 
  18:src/MemoryAllocator.cpp **** //    instance->allocMemHead = nullptr;
  19:src/MemoryAllocator.cpp **** 
  20:src/MemoryAllocator.cpp **** //    kprintString("Initializing memory allocator: ");
  21:src/MemoryAllocator.cpp **** //    kprintUnsigned(instance->freeMemHead->size);
  22:src/MemoryAllocator.cpp **** //    kprintString("\n");
  23:src/MemoryAllocator.cpp **** 
  24:src/MemoryAllocator.cpp **** }
  66              		.loc 1 24 1
  67 0074 03348100 		ld	s0,8(sp)
  68              		.cfi_restore 8
  69              		.cfi_def_cfa 2, 16
  70 0078 13010101 		addi	sp,sp,16
  71              		.cfi_def_cfa_offset 0
  72 007c 67800000 		jr	ra
  73              		.cfi_endproc
  74              	.LFE36:
  76              		.align	2
  77              		.globl	_ZN15MemoryAllocator11getInstanceEv
  79              	_ZN15MemoryAllocator11getInstanceEv:
  80              	.LFB37:
  25:src/MemoryAllocator.cpp **** 
  26:src/MemoryAllocator.cpp **** MemoryAllocator *MemoryAllocator::getInstance() {
  81              		.loc 1 26 49 is_stmt 1
  82              		.cfi_startproc
  27:src/MemoryAllocator.cpp ****     if (!instance) initMemoryAllocator();
  83              		.loc 1 27 5
  84              		.loc 1 27 9 is_stmt 0
  85 0080 97070000 		ld	a5,.LANCHOR0
  85      83B70700 
GAS LISTING /tmp/cczm76Go.s 			page 3


  86              		.loc 1 27 5
  87 0088 63880700 		beqz	a5,.L9
  28:src/MemoryAllocator.cpp **** 
  29:src/MemoryAllocator.cpp ****     return instance;
  88              		.loc 1 29 5 is_stmt 1
  30:src/MemoryAllocator.cpp **** }
  89              		.loc 1 30 1 is_stmt 0
  90 008c 17050000 		ld	a0,.LANCHOR0
  90      03350500 
  91 0094 67800000 		ret
  92              	.L9:
  26:src/MemoryAllocator.cpp ****     if (!instance) initMemoryAllocator();
  93              		.loc 1 26 49 discriminator 1
  94 0098 130101FF 		addi	sp,sp,-16
  95              		.cfi_def_cfa_offset 16
  96 009c 23341100 		sd	ra,8(sp)
  97 00a0 23308100 		sd	s0,0(sp)
  98              		.cfi_offset 1, -8
  99              		.cfi_offset 8, -16
 100 00a4 13040101 		addi	s0,sp,16
 101              		.cfi_def_cfa 8, 0
  27:src/MemoryAllocator.cpp **** 
 102              		.loc 1 27 20 is_stmt 1 discriminator 1
  27:src/MemoryAllocator.cpp **** 
 103              		.loc 1 27 39 is_stmt 0 discriminator 1
 104 00a8 97000000 		call	_ZN15MemoryAllocator19initMemoryAllocatorEv
 104      E7800000 
 105              	.LVL0:
  29:src/MemoryAllocator.cpp **** }
 106              		.loc 1 29 5 is_stmt 1 discriminator 1
 107              		.loc 1 30 1 is_stmt 0 discriminator 1
 108 00b0 17050000 		ld	a0,.LANCHOR0
 108      03350500 
 109 00b8 83308100 		ld	ra,8(sp)
 110              		.cfi_restore 1
 111 00bc 03340100 		ld	s0,0(sp)
 112              		.cfi_restore 8
 113              		.cfi_def_cfa 2, 16
 114 00c0 13010101 		addi	sp,sp,16
 115              		.cfi_def_cfa_offset 0
 116 00c4 67800000 		jr	ra
 117              		.cfi_endproc
 118              	.LFE37:
 120              		.align	2
 121              		.globl	_ZN15MemoryAllocator6mallocEm
 123              	_ZN15MemoryAllocator6mallocEm:
 124              	.LFB38:
  31:src/MemoryAllocator.cpp **** 
  32:src/MemoryAllocator.cpp **** void *MemoryAllocator::malloc(size_t size) {
 125              		.loc 1 32 44 is_stmt 1
 126              		.cfi_startproc
 127              	.LVL1:
 128 00c8 130101FD 		addi	sp,sp,-48
 129              		.cfi_def_cfa_offset 48
 130 00cc 23341102 		sd	ra,40(sp)
 131 00d0 23308102 		sd	s0,32(sp)
 132 00d4 233C9100 		sd	s1,24(sp)
GAS LISTING /tmp/cczm76Go.s 			page 4


 133 00d8 23382101 		sd	s2,16(sp)
 134 00dc 23343101 		sd	s3,8(sp)
 135              		.cfi_offset 1, -8
 136              		.cfi_offset 8, -16
 137              		.cfi_offset 9, -24
 138              		.cfi_offset 18, -32
 139              		.cfi_offset 19, -40
 140 00e0 13040103 		addi	s0,sp,48
 141              		.cfi_def_cfa 8, 0
  33:src/MemoryAllocator.cpp ****     // Initial check
  34:src/MemoryAllocator.cpp ****     if (!size) return 0;
 142              		.loc 1 34 5
 143 00e4 638E050E 		beqz	a1,.L20
 144 00e8 93090500 		mv	s3,a0
  35:src/MemoryAllocator.cpp **** 
  36:src/MemoryAllocator.cpp ****     // Rounding and aligning size to size of memory blocks
  37:src/MemoryAllocator.cpp ****     size = ((size - 1) / MEM_BLOCK_SIZE + 1) * MEM_BLOCK_SIZE;
 145              		.loc 1 37 5
 146              		.loc 1 37 19 is_stmt 0
 147 00ec 1389F5FF 		addi	s2,a1,-1
 148              		.loc 1 37 24
 149 00f0 13596900 		srli	s2,s2,6
 150              		.loc 1 37 41
 151 00f4 13091900 		addi	s2,s2,1
 152              		.loc 1 37 10
 153 00f8 13196900 		slli	s2,s2,6
 154              	.LVL2:
  38:src/MemoryAllocator.cpp **** 
  39:src/MemoryAllocator.cpp ****     mutex->wait();
 155              		.loc 1 39 5 is_stmt 1
 156              		.loc 1 39 16 is_stmt 0
 157 00fc 03358500 		ld	a0,8(a0)
 158              	.LVL3:
 159 0100 97000000 		call	_ZN5Mutex4waitEv@plt
 159      E7800000 
 160              	.LVL4:
  40:src/MemoryAllocator.cpp ****     // Finding suitable free memory block using first fit algorithm
  41:src/MemoryAllocator.cpp ****     BlockHeader *curr = freeMemHead, *prev = nullptr;
 161              		.loc 1 41 5 is_stmt 1
 162              		.loc 1 41 18 is_stmt 0
 163 0108 83B40900 		ld	s1,0(s3)
 164              	.LVL5:
  42:src/MemoryAllocator.cpp ****     int i = 0;
 165              		.loc 1 42 5 is_stmt 1
  41:src/MemoryAllocator.cpp ****     int i = 0;
 166              		.loc 1 41 39 is_stmt 0
 167 010c 13070000 		li	a4,0
 168              	.LVL6:
 169              	.L13:
  43:src/MemoryAllocator.cpp ****     while (curr && curr->size < size)
 170              		.loc 1 43 5 is_stmt 1
 171              		.loc 1 43 17
 172 0110 638C0400 		beqz	s1,.L12
 173              		.loc 1 43 26 is_stmt 0 discriminator 1
 174 0114 83B70400 		ld	a5,0(s1)
 175              		.loc 1 43 17 discriminator 1
 176 0118 63F82701 		bgeu	a5,s2,.L12
GAS LISTING /tmp/cczm76Go.s 			page 5


  44:src/MemoryAllocator.cpp ****         prev = curr, curr = curr->next, i++;
 177              		.loc 1 44 9 is_stmt 1
 178              	.LVL7:
 179              		.loc 1 44 14 is_stmt 0
 180 011c 13870400 		mv	a4,s1
 181              		.loc 1 44 27
 182 0120 83B40401 		ld	s1,16(s1)
 183              	.LVL8:
  43:src/MemoryAllocator.cpp ****     while (curr && curr->size < size)
 184              		.loc 1 43 5
 185 0124 6FF0DFFE 		j	.L13
 186              	.L12:
  45:src/MemoryAllocator.cpp ****     if (!curr)  {
 187              		.loc 1 45 5 is_stmt 1
 188 0128 63840404 		beqz	s1,.L22
  46:src/MemoryAllocator.cpp **** //        kprintString("Failed allocation\n");
  47:src/MemoryAllocator.cpp ****         mutex->signal();
  48:src/MemoryAllocator.cpp ****         return nullptr;
  49:src/MemoryAllocator.cpp ****     }
  50:src/MemoryAllocator.cpp **** 
  51:src/MemoryAllocator.cpp ****     size_t remainingSize = curr->size - size;
 189              		.loc 1 51 5
 190              		.loc 1 51 34 is_stmt 0
 191 012c 83B70400 		ld	a5,0(s1)
 192              		.loc 1 51 12
 193 0130 B3872741 		sub	a5,a5,s2
 194              	.LVL9:
  52:src/MemoryAllocator.cpp ****     curr->size = size;
 195              		.loc 1 52 5 is_stmt 1
 196              		.loc 1 52 16 is_stmt 0
 197 0134 23B02401 		sd	s2,0(s1)
  53:src/MemoryAllocator.cpp ****     curr->free = false;
 198              		.loc 1 53 5 is_stmt 1
 199              		.loc 1 53 16 is_stmt 0
 200 0138 23840400 		sb	zero,8(s1)
  54:src/MemoryAllocator.cpp ****     // Allocating new free memory block if enough size is left over
  55:src/MemoryAllocator.cpp ****     if (remainingSize >= MEM_BLOCK_SIZE + sizeof(BlockHeader)) {
 201              		.loc 1 55 5 is_stmt 1
 202              	.LBB2:
 203 013c 93067005 		li	a3,87
 204 0140 63F4F604 		bleu	a5,a3,.L15
 205              	.LBB3:
  56:src/MemoryAllocator.cpp ****         BlockHeader *elem = (BlockHeader *) ((uint8 *) curr + sizeof(BlockHeader) + size);
 206              		.loc 1 56 9
 207              		.loc 1 56 83 is_stmt 0
 208 0144 13098901 		addi	s2,s2,24
 209              	.LVL10:
 210              		.loc 1 56 22
 211 0148 33892401 		add	s2,s1,s2
 212              	.LVL11:
  57:src/MemoryAllocator.cpp ****         elem->size = remainingSize - sizeof(BlockHeader);
 213              		.loc 1 57 9 is_stmt 1
 214              		.loc 1 57 36 is_stmt 0
 215 014c 938787FE 		addi	a5,a5,-24
 216              	.LVL12:
 217              		.loc 1 57 20
 218 0150 2330F900 		sd	a5,0(s2)
GAS LISTING /tmp/cczm76Go.s 			page 6


 219              	.LVL13:
  58:src/MemoryAllocator.cpp ****         elem->free = true;
 220              		.loc 1 58 9 is_stmt 1
 221              		.loc 1 58 20 is_stmt 0
 222 0154 93071000 		li	a5,1
 223              	.LVL14:
 224 0158 2304F900 		sb	a5,8(s2)
  59:src/MemoryAllocator.cpp ****         elem->next = curr->next;
 225              		.loc 1 59 9 is_stmt 1
 226              		.loc 1 59 28 is_stmt 0
 227 015c 83B70401 		ld	a5,16(s1)
 228              		.loc 1 59 20
 229 0160 2338F900 		sd	a5,16(s2)
  60:src/MemoryAllocator.cpp ****         (!prev ? freeMemHead : prev->next) = elem;
 230              		.loc 1 60 9 is_stmt 1
 231              		.loc 1 60 44 is_stmt 0
 232 0164 630E0700 		beqz	a4,.L23
 233              		.loc 1 60 44 discriminator 2
 234 0168 23382701 		sd	s2,16(a4)
 235              	.LVL15:
 236 016c 6F004003 		j	.L17
 237              	.LVL16:
 238              	.L22:
 239              	.LBE3:
 240              	.LBE2:
  47:src/MemoryAllocator.cpp ****         return nullptr;
 241              		.loc 1 47 9 is_stmt 1
  47:src/MemoryAllocator.cpp ****         return nullptr;
 242              		.loc 1 47 22 is_stmt 0
 243 0170 03B58900 		ld	a0,8(s3)
 244 0174 97000000 		call	_ZN5Mutex6signalEv@plt
 244      E7800000 
 245              	.LVL17:
  48:src/MemoryAllocator.cpp ****     }
 246              		.loc 1 48 9 is_stmt 1
  48:src/MemoryAllocator.cpp ****     }
 247              		.loc 1 48 16 is_stmt 0
 248 017c 6F008003 		j	.L10
 249              	.LVL18:
 250              	.L23:
 251              	.LBB5:
 252              	.LBB4:
 253              		.loc 1 60 44 discriminator 1
 254 0180 23B02901 		sd	s2,0(s3)
 255              	.LVL19:
 256 0184 6F00C001 		j	.L17
 257              	.LVL20:
 258              	.L15:
 259              	.LBE4:
  61:src/MemoryAllocator.cpp ****     } else {
  62:src/MemoryAllocator.cpp ****         // Removing whole free memory block from free memory list
  63:src/MemoryAllocator.cpp ****         (!prev ? freeMemHead : prev->next) = curr->next;
 260              		.loc 1 63 9 is_stmt 1
 261              		.loc 1 63 44 is_stmt 0
 262 0188 63060704 		beqz	a4,.L24
 263              		.loc 1 63 52 discriminator 2
 264 018c 83B60401 		ld	a3,16(s1)
GAS LISTING /tmp/cczm76Go.s 			page 7


 265              		.loc 1 63 44 discriminator 2
 266 0190 2338D700 		sd	a3,16(a4)
 267              	.LVL21:
 268              	.L19:
  64:src/MemoryAllocator.cpp ****         curr->size += remainingSize;
 269              		.loc 1 64 9 is_stmt 1
 270              		.loc 1 64 20 is_stmt 0
 271 0194 03B70400 		ld	a4,0(s1)
 272 0198 B307F700 		add	a5,a4,a5
 273              	.LVL22:
 274 019c 23B0F400 		sd	a5,0(s1)
 275              	.LVL23:
 276              	.L17:
 277              	.LBE5:
  65:src/MemoryAllocator.cpp ****     }
  66:src/MemoryAllocator.cpp ****     curr->next = nullptr;
 278              		.loc 1 66 5 is_stmt 1
 279              		.loc 1 66 16 is_stmt 0
 280 01a0 23B80400 		sd	zero,16(s1)
  67:src/MemoryAllocator.cpp **** 
  68:src/MemoryAllocator.cpp ****     // Free memory start address after segment descriptor of allocated memory block
  69:src/MemoryAllocator.cpp ****     void *addr = (uint8 *) curr + sizeof(BlockHeader);
 281              		.loc 1 69 5 is_stmt 1
 282              		.loc 1 69 11 is_stmt 0
 283 01a4 93848401 		addi	s1,s1,24
 284              	.LVL24:
  70:src/MemoryAllocator.cpp **** 
  71:src/MemoryAllocator.cpp ****     //
  72:src/MemoryAllocator.cpp **** //    prev = nullptr;
  73:src/MemoryAllocator.cpp **** //    BlockHeader *next = allocMemHead;
  74:src/MemoryAllocator.cpp **** //    while (next && next <= curr)
  75:src/MemoryAllocator.cpp **** //        prev = next, next = next->next;
  76:src/MemoryAllocator.cpp **** //
  77:src/MemoryAllocator.cpp **** //    (!prev ? allocMemHead : prev->next) = curr;
  78:src/MemoryAllocator.cpp **** //    curr->next = next;
  79:src/MemoryAllocator.cpp ****     //
  80:src/MemoryAllocator.cpp **** 
  81:src/MemoryAllocator.cpp ****     mutex->signal();
 285              		.loc 1 81 5 is_stmt 1
 286              		.loc 1 81 18 is_stmt 0
 287 01a8 03B58900 		ld	a0,8(s3)
 288 01ac 97000000 		call	_ZN5Mutex6signalEv@plt
 288      E7800000 
 289              	.LVL25:
  82:src/MemoryAllocator.cpp **** 
  83:src/MemoryAllocator.cpp ****     return addr;
 290              		.loc 1 83 5 is_stmt 1
 291              	.L10:
  84:src/MemoryAllocator.cpp **** }
 292              		.loc 1 84 1 is_stmt 0
 293 01b4 13850400 		mv	a0,s1
 294 01b8 83308102 		ld	ra,40(sp)
 295              		.cfi_remember_state
 296              		.cfi_restore 1
 297 01bc 03340102 		ld	s0,32(sp)
 298              		.cfi_restore 8
 299              		.cfi_def_cfa 2, 48
GAS LISTING /tmp/cczm76Go.s 			page 8


 300 01c0 83348101 		ld	s1,24(sp)
 301              		.cfi_restore 9
 302 01c4 03390101 		ld	s2,16(sp)
 303              		.cfi_restore 18
 304 01c8 83398100 		ld	s3,8(sp)
 305              		.cfi_restore 19
 306 01cc 13010103 		addi	sp,sp,48
 307              		.cfi_def_cfa_offset 0
 308 01d0 67800000 		jr	ra
 309              	.LVL26:
 310              	.L24:
 311              		.cfi_restore_state
 312              	.LBB6:
  63:src/MemoryAllocator.cpp ****         curr->size += remainingSize;
 313              		.loc 1 63 52 discriminator 1
 314 01d4 03B70401 		ld	a4,16(s1)
 315              	.LVL27:
  63:src/MemoryAllocator.cpp ****         curr->size += remainingSize;
 316              		.loc 1 63 44 discriminator 1
 317 01d8 23B0E900 		sd	a4,0(s3)
 318 01dc 6FF09FFB 		j	.L19
 319              	.LVL28:
 320              	.L20:
 321              	.LBE6:
  34:src/MemoryAllocator.cpp **** 
 322              		.loc 1 34 23
 323 01e0 93040000 		li	s1,0
 324 01e4 6FF01FFD 		j	.L10
 325              		.cfi_endproc
 326              	.LFE38:
 328              		.align	2
 329              		.globl	_ZN15MemoryAllocator9tryToJoinEPNS_11BlockHeaderE
 331              	_ZN15MemoryAllocator9tryToJoinEPNS_11BlockHeaderE:
 332              	.LFB40:
  85:src/MemoryAllocator.cpp **** 
  86:src/MemoryAllocator.cpp **** int MemoryAllocator::free(void *addr) {
  87:src/MemoryAllocator.cpp ****     if (!addr
  88:src/MemoryAllocator.cpp ****         || (uint8 *) addr < (uint8 *) HEAP_START_ADDR + sizeof(MemoryAllocator) + sizeof(BlockHeade
  89:src/MemoryAllocator.cpp ****         || addr >= HEAP_END_ADDR) {
  90:src/MemoryAllocator.cpp **** //        kprintString("failed1\n");
  91:src/MemoryAllocator.cpp ****         return -1;
  92:src/MemoryAllocator.cpp ****     }
  93:src/MemoryAllocator.cpp **** 
  94:src/MemoryAllocator.cpp ****     BlockHeader *elem = (BlockHeader *) ((uint8 *) addr - sizeof(BlockHeader));
  95:src/MemoryAllocator.cpp **** 
  96:src/MemoryAllocator.cpp ****     if (!elem || elem->free || elem->next) {
  97:src/MemoryAllocator.cpp **** //        kprintString("failed2\n");
  98:src/MemoryAllocator.cpp ****         return -2;
  99:src/MemoryAllocator.cpp ****     }
 100:src/MemoryAllocator.cpp **** 
 101:src/MemoryAllocator.cpp ****     mutex->wait();
 102:src/MemoryAllocator.cpp **** 
 103:src/MemoryAllocator.cpp ****     //
 104:src/MemoryAllocator.cpp **** //    BlockHeader *curr = allocMemHead, *prev = nullptr;
 105:src/MemoryAllocator.cpp **** //    while (curr && curr < elem)
 106:src/MemoryAllocator.cpp **** //        prev = curr, curr = curr->next;
 107:src/MemoryAllocator.cpp **** //
GAS LISTING /tmp/cczm76Go.s 			page 9


 108:src/MemoryAllocator.cpp **** //    if (curr != elem) {
 109:src/MemoryAllocator.cpp **** //        mutex->signal();
 110:src/MemoryAllocator.cpp **** //        kprintString("failed3\n");
 111:src/MemoryAllocator.cpp **** //        return -3;
 112:src/MemoryAllocator.cpp **** //    }
 113:src/MemoryAllocator.cpp **** 
 114:src/MemoryAllocator.cpp **** //    (!prev ? allocMemHead : prev->next) = elem->next;
 115:src/MemoryAllocator.cpp ****     //
 116:src/MemoryAllocator.cpp **** 
 117:src/MemoryAllocator.cpp ****     BlockHeader *curr = freeMemHead, *prev = nullptr;
 118:src/MemoryAllocator.cpp ****     while (curr && curr < elem)
 119:src/MemoryAllocator.cpp ****         prev = curr, curr = curr->next;
 120:src/MemoryAllocator.cpp **** 
 121:src/MemoryAllocator.cpp ****     if ((prev && (uint8 *) prev + prev->size + sizeof(BlockHeader) > addr)
 122:src/MemoryAllocator.cpp ****         || (curr && (uint8 *) addr + elem->size  > (uint8 *) curr)) {
 123:src/MemoryAllocator.cpp **** //        if (prev && (uint8 *) prev + prev->size + sizeof(BlockHeader) > addr)  kprintString("Fail
 124:src/MemoryAllocator.cpp **** //        if (curr && (uint8 *) addr + elem->size > (uint8 *) curr)  kprintString("Failed5\n");
 125:src/MemoryAllocator.cpp ****         return -2;
 126:src/MemoryAllocator.cpp ****     }
 127:src/MemoryAllocator.cpp **** 
 128:src/MemoryAllocator.cpp ****     elem->next = curr;
 129:src/MemoryAllocator.cpp ****     elem->free = true;
 130:src/MemoryAllocator.cpp ****     (!prev ? freeMemHead : prev->next) = elem;
 131:src/MemoryAllocator.cpp **** 
 132:src/MemoryAllocator.cpp ****     tryToJoin(elem);
 133:src/MemoryAllocator.cpp ****     tryToJoin(prev);
 134:src/MemoryAllocator.cpp **** 
 135:src/MemoryAllocator.cpp ****     mutex->signal();
 136:src/MemoryAllocator.cpp **** 
 137:src/MemoryAllocator.cpp ****     return 0;
 138:src/MemoryAllocator.cpp **** }
 139:src/MemoryAllocator.cpp **** 
 140:src/MemoryAllocator.cpp **** int MemoryAllocator::tryToJoin(MemoryAllocator::BlockHeader *curr) {
 333              		.loc 1 140 68 is_stmt 1
 334              		.cfi_startproc
 335              	.LVL29:
 336 01e8 130101FF 		addi	sp,sp,-16
 337              		.cfi_def_cfa_offset 16
 338 01ec 23348100 		sd	s0,8(sp)
 339              		.cfi_offset 8, -8
 340 01f0 13040101 		addi	s0,sp,16
 341              		.cfi_def_cfa 8, 0
 141:src/MemoryAllocator.cpp ****     if (!curr || !curr->next) return -1;
 342              		.loc 1 141 5
 343 01f4 63020504 		beqz	a0,.L27
 344              		.loc 1 141 25 is_stmt 0 discriminator 2
 345 01f8 03370501 		ld	a4,16(a0)
 346              		.loc 1 141 15 discriminator 2
 347 01fc 63020704 		beqz	a4,.L28
 142:src/MemoryAllocator.cpp **** 
 143:src/MemoryAllocator.cpp ****     if ((uint8 *) curr + sizeof(BlockHeader) + curr->size != (uint8 *) curr->next) return -2;
 348              		.loc 1 143 5 is_stmt 1
 349              		.loc 1 143 54 is_stmt 0
 350 0200 83370500 		ld	a5,0(a0)
 351              		.loc 1 143 46
 352 0204 93868701 		addi	a3,a5,24
 353 0208 B306D500 		add	a3,a0,a3
GAS LISTING /tmp/cczm76Go.s 			page 10


 354              		.loc 1 143 5
 355 020c 631ED702 		bne	a4,a3,.L29
 144:src/MemoryAllocator.cpp **** 
 145:src/MemoryAllocator.cpp ****     curr->size += curr->next->size + sizeof(BlockHeader);
 356              		.loc 1 145 5 is_stmt 1
 357              		.loc 1 145 31 is_stmt 0
 358 0210 83360700 		ld	a3,0(a4)
 359              		.loc 1 145 16
 360 0214 B387D700 		add	a5,a5,a3
 361 0218 93878701 		addi	a5,a5,24
 362 021c 2330F500 		sd	a5,0(a0)
 146:src/MemoryAllocator.cpp ****     curr->next = curr->next->next;
 363              		.loc 1 146 5 is_stmt 1
 364              		.loc 1 146 30 is_stmt 0
 365 0220 83370701 		ld	a5,16(a4)
 366              		.loc 1 146 16
 367 0224 2338F500 		sd	a5,16(a0)
 147:src/MemoryAllocator.cpp **** 
 148:src/MemoryAllocator.cpp ****     return 0;
 368              		.loc 1 148 5 is_stmt 1
 369              		.loc 1 148 12 is_stmt 0
 370 0228 13050000 		li	a0,0
 371              	.LVL30:
 372              	.L26:
 149:src/MemoryAllocator.cpp **** }
 373              		.loc 1 149 1
 374 022c 03348100 		ld	s0,8(sp)
 375              		.cfi_remember_state
 376              		.cfi_restore 8
 377              		.cfi_def_cfa 2, 16
 378 0230 13010101 		addi	sp,sp,16
 379              		.cfi_def_cfa_offset 0
 380 0234 67800000 		jr	ra
 381              	.LVL31:
 382              	.L27:
 383              		.cfi_restore_state
 141:src/MemoryAllocator.cpp **** 
 384              		.loc 1 141 39
 385 0238 1305F0FF 		li	a0,-1
 386              	.LVL32:
 387 023c 6FF01FFF 		j	.L26
 388              	.LVL33:
 389              	.L28:
 390 0240 1305F0FF 		li	a0,-1
 391              	.LVL34:
 392 0244 6FF09FFE 		j	.L26
 393              	.LVL35:
 394              	.L29:
 143:src/MemoryAllocator.cpp **** 
 395              		.loc 1 143 92
 396 0248 1305E0FF 		li	a0,-2
 397              	.LVL36:
 398 024c 6FF01FFE 		j	.L26
 399              		.cfi_endproc
 400              	.LFE40:
 402              		.align	2
 403              		.globl	_ZN15MemoryAllocator4freeEPv
GAS LISTING /tmp/cczm76Go.s 			page 11


 405              	_ZN15MemoryAllocator4freeEPv:
 406              	.LFB39:
  86:src/MemoryAllocator.cpp ****     if (!addr
 407              		.loc 1 86 39 is_stmt 1
 408              		.cfi_startproc
 409              	.LVL37:
  87:src/MemoryAllocator.cpp ****         || (uint8 *) addr < (uint8 *) HEAP_START_ADDR + sizeof(MemoryAllocator) + sizeof(BlockHeade
 410              		.loc 1 87 5
 411 0250 638A0510 		beqz	a1,.L39
  86:src/MemoryAllocator.cpp ****     if (!addr
 412              		.loc 1 86 39 is_stmt 0
 413 0254 130101FD 		addi	sp,sp,-48
 414              		.cfi_def_cfa_offset 48
 415 0258 23341102 		sd	ra,40(sp)
 416 025c 23308102 		sd	s0,32(sp)
 417 0260 233C9100 		sd	s1,24(sp)
 418 0264 23382101 		sd	s2,16(sp)
 419 0268 23343101 		sd	s3,8(sp)
 420 026c 23304101 		sd	s4,0(sp)
 421              		.cfi_offset 1, -8
 422              		.cfi_offset 8, -16
 423              		.cfi_offset 9, -24
 424              		.cfi_offset 18, -32
 425              		.cfi_offset 19, -40
 426              		.cfi_offset 20, -48
 427 0270 13040103 		addi	s0,sp,48
 428              		.cfi_def_cfa 8, 0
 429 0274 130A0500 		mv	s4,a0
 430 0278 13890500 		mv	s2,a1
  88:src/MemoryAllocator.cpp ****         || addr >= HEAP_END_ADDR) {
 431              		.loc 1 88 29
 432 027c 97070000 		la	a5,HEAP_START_ADDR
 432      83B70700 
 433 0284 83B70700 		ld	a5,0(a5)
  88:src/MemoryAllocator.cpp ****         || addr >= HEAP_END_ADDR) {
 434              		.loc 1 88 103
 435 0288 93878705 		addi	a5,a5,88
  88:src/MemoryAllocator.cpp ****         || addr >= HEAP_END_ADDR) {
 436              		.loc 1 88 9
 437 028c 63E0F50E 		bgtu	a5,a1,.L40
  89:src/MemoryAllocator.cpp **** //        kprintString("failed1\n");
 438              		.loc 1 89 17
 439 0290 97070000 		la	a5,HEAP_END_ADDR
 439      83B70700 
 440 0298 83B70700 		ld	a5,0(a5)
  89:src/MemoryAllocator.cpp **** //        kprintString("failed1\n");
 441              		.loc 1 89 9
 442 029c 63FCF50C 		bleu	a5,a1,.L41
  94:src/MemoryAllocator.cpp **** 
 443              		.loc 1 94 5 is_stmt 1
  94:src/MemoryAllocator.cpp **** 
 444              		.loc 1 94 18 is_stmt 0
 445 02a0 938985FE 		addi	s3,a1,-24
 446              	.LVL38:
  96:src/MemoryAllocator.cpp **** //        kprintString("failed2\n");
 447              		.loc 1 96 5 is_stmt 1
 448 02a4 638C090C 		beqz	s3,.L42
GAS LISTING /tmp/cczm76Go.s 			page 12


  96:src/MemoryAllocator.cpp **** //        kprintString("failed2\n");
 449              		.loc 1 96 24 is_stmt 0 discriminator 1
 450 02a8 83C705FF 		lbu	a5,-16(a1)
  96:src/MemoryAllocator.cpp **** //        kprintString("failed2\n");
 451              		.loc 1 96 15 discriminator 1
 452 02ac 639C070C 		bnez	a5,.L43
  96:src/MemoryAllocator.cpp **** //        kprintString("failed2\n");
 453              		.loc 1 96 38 discriminator 2
 454 02b0 83B485FF 		ld	s1,-8(a1)
  96:src/MemoryAllocator.cpp **** //        kprintString("failed2\n");
 455              		.loc 1 96 29 discriminator 2
 456 02b4 639C040C 		bnez	s1,.L44
 101:src/MemoryAllocator.cpp **** 
 457              		.loc 1 101 5 is_stmt 1
 101:src/MemoryAllocator.cpp **** 
 458              		.loc 1 101 16 is_stmt 0
 459 02b8 03358500 		ld	a0,8(a0)
 460              	.LVL39:
 461 02bc 97000000 		call	_ZN5Mutex4waitEv@plt
 461      E7800000 
 462              	.LVL40:
 117:src/MemoryAllocator.cpp ****     while (curr && curr < elem)
 463              		.loc 1 117 5 is_stmt 1
 117:src/MemoryAllocator.cpp ****     while (curr && curr < elem)
 464              		.loc 1 117 18 is_stmt 0
 465 02c4 83370A00 		ld	a5,0(s4)
 466              	.LVL41:
 467              	.L34:
 118:src/MemoryAllocator.cpp ****         prev = curr, curr = curr->next;
 468              		.loc 1 118 5 is_stmt 1
 118:src/MemoryAllocator.cpp ****         prev = curr, curr = curr->next;
 469              		.loc 1 118 17
 470 02c8 638A0700 		beqz	a5,.L33
 118:src/MemoryAllocator.cpp ****         prev = curr, curr = curr->next;
 471              		.loc 1 118 17 is_stmt 0 discriminator 1
 472 02cc 63F83701 		bgeu	a5,s3,.L33
 119:src/MemoryAllocator.cpp **** 
 473              		.loc 1 119 9 is_stmt 1
 474              	.LVL42:
 119:src/MemoryAllocator.cpp **** 
 475              		.loc 1 119 14 is_stmt 0
 476 02d0 93840700 		mv	s1,a5
 119:src/MemoryAllocator.cpp **** 
 477              		.loc 1 119 27
 478 02d4 83B70701 		ld	a5,16(a5)
 479              	.LVL43:
 118:src/MemoryAllocator.cpp ****         prev = curr, curr = curr->next;
 480              		.loc 1 118 5
 481 02d8 6FF01FFF 		j	.L34
 482              	.L33:
 121:src/MemoryAllocator.cpp ****         || (curr && (uint8 *) addr + elem->size  > (uint8 *) curr)) {
 483              		.loc 1 121 5 is_stmt 1
 484 02dc 638A0400 		beqz	s1,.L35
 121:src/MemoryAllocator.cpp ****         || (curr && (uint8 *) addr + elem->size  > (uint8 *) curr)) {
 485              		.loc 1 121 41 is_stmt 0 discriminator 1
 486 02e0 03B70400 		ld	a4,0(s1)
 121:src/MemoryAllocator.cpp ****         || (curr && (uint8 *) addr + elem->size  > (uint8 *) curr)) {
GAS LISTING /tmp/cczm76Go.s 			page 13


 487              		.loc 1 121 46 discriminator 1
 488 02e4 13078701 		addi	a4,a4,24
 489 02e8 3387E400 		add	a4,s1,a4
 121:src/MemoryAllocator.cpp ****         || (curr && (uint8 *) addr + elem->size  > (uint8 *) curr)) {
 490              		.loc 1 121 15 discriminator 1
 491 02ec 6364E90A 		bgtu	a4,s2,.L45
 492              	.L35:
 122:src/MemoryAllocator.cpp **** //        if (prev && (uint8 *) prev + prev->size + sizeof(BlockHeader) > addr)  kprintString("Fail
 493              		.loc 1 122 9
 494 02f0 63880700 		beqz	a5,.L36
 122:src/MemoryAllocator.cpp **** //        if (prev && (uint8 *) prev + prev->size + sizeof(BlockHeader) > addr)  kprintString("Fail
 495              		.loc 1 122 44 discriminator 1
 496 02f4 033789FE 		ld	a4,-24(s2)
 122:src/MemoryAllocator.cpp **** //        if (prev && (uint8 *) prev + prev->size + sizeof(BlockHeader) > addr)  kprintString("Fail
 497              		.loc 1 122 36 discriminator 1
 498 02f8 3307E900 		add	a4,s2,a4
 122:src/MemoryAllocator.cpp **** //        if (prev && (uint8 *) prev + prev->size + sizeof(BlockHeader) > addr)  kprintString("Fail
 499              		.loc 1 122 18 discriminator 1
 500 02fc 63E0E70A 		bgtu	a4,a5,.L46
 501              	.L36:
 128:src/MemoryAllocator.cpp ****     elem->free = true;
 502              		.loc 1 128 5 is_stmt 1
 128:src/MemoryAllocator.cpp ****     elem->free = true;
 503              		.loc 1 128 16 is_stmt 0
 504 0300 233CF9FE 		sd	a5,-8(s2)
 129:src/MemoryAllocator.cpp ****     (!prev ? freeMemHead : prev->next) = elem;
 505              		.loc 1 129 5 is_stmt 1
 129:src/MemoryAllocator.cpp ****     (!prev ? freeMemHead : prev->next) = elem;
 506              		.loc 1 129 16 is_stmt 0
 507 0304 93071000 		li	a5,1
 508              	.LVL44:
 509 0308 2308F9FE 		sb	a5,-16(s2)
 130:src/MemoryAllocator.cpp **** 
 510              		.loc 1 130 5 is_stmt 1
 130:src/MemoryAllocator.cpp **** 
 511              		.loc 1 130 40 is_stmt 0
 512 030c 63880404 		beqz	s1,.L51
 130:src/MemoryAllocator.cpp **** 
 513              		.loc 1 130 40 discriminator 2
 514 0310 23B83401 		sd	s3,16(s1)
 515              	.LVL45:
 516              	.L38:
 132:src/MemoryAllocator.cpp ****     tryToJoin(prev);
 517              		.loc 1 132 5 is_stmt 1
 132:src/MemoryAllocator.cpp ****     tryToJoin(prev);
 518              		.loc 1 132 14 is_stmt 0
 519 0314 13850900 		mv	a0,s3
 520 0318 97000000 		call	_ZN15MemoryAllocator9tryToJoinEPNS_11BlockHeaderE
 520      E7800000 
 521              	.LVL46:
 133:src/MemoryAllocator.cpp **** 
 522              		.loc 1 133 5 is_stmt 1
 133:src/MemoryAllocator.cpp **** 
 523              		.loc 1 133 14 is_stmt 0
 524 0320 13850400 		mv	a0,s1
 525 0324 97000000 		call	_ZN15MemoryAllocator9tryToJoinEPNS_11BlockHeaderE
 525      E7800000 
GAS LISTING /tmp/cczm76Go.s 			page 14


 526              	.LVL47:
 135:src/MemoryAllocator.cpp **** 
 527              		.loc 1 135 5 is_stmt 1
 135:src/MemoryAllocator.cpp **** 
 528              		.loc 1 135 18 is_stmt 0
 529 032c 03358A00 		ld	a0,8(s4)
 530 0330 97000000 		call	_ZN5Mutex6signalEv@plt
 530      E7800000 
 531              	.LVL48:
 137:src/MemoryAllocator.cpp **** }
 532              		.loc 1 137 5 is_stmt 1
 137:src/MemoryAllocator.cpp **** }
 533              		.loc 1 137 12 is_stmt 0
 534 0338 13050000 		li	a0,0
 535              	.LVL49:
 536              	.L32:
 138:src/MemoryAllocator.cpp **** 
 537              		.loc 1 138 1
 538 033c 83308102 		ld	ra,40(sp)
 539              		.cfi_remember_state
 540              		.cfi_restore 1
 541 0340 03340102 		ld	s0,32(sp)
 542              		.cfi_restore 8
 543              		.cfi_def_cfa 2, 48
 544 0344 83348101 		ld	s1,24(sp)
 545              		.cfi_restore 9
 546 0348 03390101 		ld	s2,16(sp)
 547              		.cfi_restore 18
 548              	.LVL50:
 549 034c 83398100 		ld	s3,8(sp)
 550              		.cfi_restore 19
 551 0350 033A0100 		ld	s4,0(sp)
 552              		.cfi_restore 20
 553              	.LVL51:
 554 0354 13010103 		addi	sp,sp,48
 555              		.cfi_def_cfa_offset 0
 556 0358 67800000 		jr	ra
 557              	.LVL52:
 558              	.L51:
 559              		.cfi_restore_state
 130:src/MemoryAllocator.cpp **** 
 560              		.loc 1 130 40 discriminator 1
 561 035c 23303A01 		sd	s3,0(s4)
 562              	.LVL53:
 563 0360 6FF05FFB 		j	.L38
 564              	.LVL54:
 565              	.L39:
 566              		.cfi_def_cfa_register 2
 567              		.cfi_restore 1
 568              		.cfi_restore 8
 569              		.cfi_restore 9
 570              		.cfi_restore 18
 571              		.cfi_restore 19
 572              		.cfi_restore 20
  91:src/MemoryAllocator.cpp ****     }
 573              		.loc 1 91 17
 574 0364 1305F0FF 		li	a0,-1
GAS LISTING /tmp/cczm76Go.s 			page 15


 575              	.LVL55:
 138:src/MemoryAllocator.cpp **** 
 576              		.loc 1 138 1
 577 0368 67800000 		ret
 578              	.LVL56:
 579              	.L40:
 580              		.cfi_def_cfa_register 8
 581              		.cfi_offset 1, -8
 582              		.cfi_offset 8, -16
 583              		.cfi_offset 9, -24
 584              		.cfi_offset 18, -32
 585              		.cfi_offset 19, -40
 586              		.cfi_offset 20, -48
  91:src/MemoryAllocator.cpp ****     }
 587              		.loc 1 91 17
 588 036c 1305F0FF 		li	a0,-1
 589              	.LVL57:
 590 0370 6FF0DFFC 		j	.L32
 591              	.LVL58:
 592              	.L41:
 593 0374 1305F0FF 		li	a0,-1
 594              	.LVL59:
 595 0378 6FF05FFC 		j	.L32
 596              	.LVL60:
 597              	.L42:
  98:src/MemoryAllocator.cpp ****     }
 598              		.loc 1 98 17
 599 037c 1305E0FF 		li	a0,-2
 600              	.LVL61:
 601 0380 6FF0DFFB 		j	.L32
 602              	.LVL62:
 603              	.L43:
 604 0384 1305E0FF 		li	a0,-2
 605              	.LVL63:
 606 0388 6FF05FFB 		j	.L32
 607              	.LVL64:
 608              	.L44:
 609 038c 1305E0FF 		li	a0,-2
 610              	.LVL65:
 611 0390 6FF0DFFA 		j	.L32
 612              	.LVL66:
 613              	.L45:
 125:src/MemoryAllocator.cpp ****     }
 614              		.loc 1 125 17
 615 0394 1305E0FF 		li	a0,-2
 616 0398 6FF05FFA 		j	.L32
 617              	.L46:
 618 039c 1305E0FF 		li	a0,-2
 619 03a0 6FF0DFF9 		j	.L32
 620              		.cfi_endproc
 621              	.LFE39:
 623              		.align	2
 624              		.globl	_Z7kmallocm
 626              	_Z7kmallocm:
 627              	.LFB41:
 150:src/MemoryAllocator.cpp **** 
 151:src/MemoryAllocator.cpp **** void *kmalloc(size_t size) {
GAS LISTING /tmp/cczm76Go.s 			page 16


 628              		.loc 1 151 28 is_stmt 1
 629              		.cfi_startproc
 630              	.LVL67:
 631 03a4 130101FE 		addi	sp,sp,-32
 632              		.cfi_def_cfa_offset 32
 633 03a8 233C1100 		sd	ra,24(sp)
 634 03ac 23388100 		sd	s0,16(sp)
 635 03b0 23349100 		sd	s1,8(sp)
 636              		.cfi_offset 1, -8
 637              		.cfi_offset 8, -16
 638              		.cfi_offset 9, -24
 639 03b4 13040102 		addi	s0,sp,32
 640              		.cfi_def_cfa 8, 0
 641 03b8 93040500 		mv	s1,a0
 152:src/MemoryAllocator.cpp ****     return MemoryAllocator::getInstance()->malloc(size);
 642              		.loc 1 152 5
 643              		.loc 1 152 50 is_stmt 0
 644 03bc 97000000 		call	_ZN15MemoryAllocator11getInstanceEv
 644      E7800000 
 645              	.LVL68:
 646 03c4 93850400 		mv	a1,s1
 647 03c8 97000000 		call	_ZN15MemoryAllocator6mallocEm
 647      E7800000 
 648              	.LVL69:
 153:src/MemoryAllocator.cpp **** }
 649              		.loc 1 153 1
 650 03d0 83308101 		ld	ra,24(sp)
 651              		.cfi_restore 1
 652 03d4 03340101 		ld	s0,16(sp)
 653              		.cfi_restore 8
 654              		.cfi_def_cfa 2, 32
 655 03d8 83348100 		ld	s1,8(sp)
 656              		.cfi_restore 9
 657              	.LVL70:
 658 03dc 13010102 		addi	sp,sp,32
 659              		.cfi_def_cfa_offset 0
 660 03e0 67800000 		jr	ra
 661              		.cfi_endproc
 662              	.LFE41:
 664              		.align	2
 665              		.globl	_Z5kfreePv
 667              	_Z5kfreePv:
 668              	.LFB42:
 154:src/MemoryAllocator.cpp **** 
 155:src/MemoryAllocator.cpp **** int kfree(void *addr) {
 669              		.loc 1 155 23 is_stmt 1
 670              		.cfi_startproc
 671              	.LVL71:
 672 03e4 130101FE 		addi	sp,sp,-32
 673              		.cfi_def_cfa_offset 32
 674 03e8 233C1100 		sd	ra,24(sp)
 675 03ec 23388100 		sd	s0,16(sp)
 676 03f0 23349100 		sd	s1,8(sp)
 677              		.cfi_offset 1, -8
 678              		.cfi_offset 8, -16
 679              		.cfi_offset 9, -24
 680 03f4 13040102 		addi	s0,sp,32
GAS LISTING /tmp/cczm76Go.s 			page 17


 681              		.cfi_def_cfa 8, 0
 682 03f8 93040500 		mv	s1,a0
 156:src/MemoryAllocator.cpp ****     return MemoryAllocator::getInstance()->free(addr);
 683              		.loc 1 156 5
 684              		.loc 1 156 48 is_stmt 0
 685 03fc 97000000 		call	_ZN15MemoryAllocator11getInstanceEv
 685      E7800000 
 686              	.LVL72:
 687 0404 93850400 		mv	a1,s1
 688 0408 97000000 		call	_ZN15MemoryAllocator4freeEPv
 688      E7800000 
 689              	.LVL73:
 157:src/MemoryAllocator.cpp **** }
 690              		.loc 1 157 1
 691 0410 83308101 		ld	ra,24(sp)
 692              		.cfi_restore 1
 693 0414 03340101 		ld	s0,16(sp)
 694              		.cfi_restore 8
 695              		.cfi_def_cfa 2, 32
 696 0418 83348100 		ld	s1,8(sp)
 697              		.cfi_restore 9
 698              	.LVL74:
 699 041c 13010102 		addi	sp,sp,32
 700              		.cfi_def_cfa_offset 0
 701 0420 67800000 		jr	ra
 702              		.cfi_endproc
 703              	.LFE42:
 705              		.globl	_ZN15MemoryAllocator8instanceE
 706              		.bss
 707              		.align	3
 708              		.set	.LANCHOR0,. + 0
 711              	_ZN15MemoryAllocator8instanceE:
 712 0000 00000000 		.zero	8
 712      00000000 
 713              		.text
 714              	.Letext0:
 715              		.file 2 "src/../h/../lib/hw.h"
 716              		.file 3 "src/../h/MemoryAllocator.h"
 717              		.file 4 "src/../h/Mutex.h"
 718              		.file 5 "src/../h/KernelObject.h"
 719              		.file 6 "src/../h/List.h"
 720              		.file 7 "src/../h/KernelSemaphore.h"
GAS LISTING /tmp/cczm76Go.s 			page 18


DEFINED SYMBOLS
                            *ABS*:0000000000000000 MemoryAllocator.cpp
     /tmp/cczm76Go.s:9      .text:0000000000000000 _ZN15MemoryAllocator19initMemoryAllocatorEv
     /tmp/cczm76Go.s:13     .text:0000000000000000 .L0 
     /tmp/cczm76Go.s:14     .text:0000000000000000 .L0 
     /tmp/cczm76Go.s:15     .text:0000000000000004 .L0 
     /tmp/cczm76Go.s:17     .text:0000000000000008 .L0 
     /tmp/cczm76Go.s:19     .text:000000000000000c .L0 
     /tmp/cczm76Go.s:21     .text:000000000000000c .L0 
     /tmp/cczm76Go.s:22     .text:000000000000000c .L0 
     /tmp/cczm76Go.s:27     .text:0000000000000024 .L0 
     /tmp/cczm76Go.s:28     .text:0000000000000024 .L0 
     /tmp/cczm76Go.s:30     .text:0000000000000028 .L0 
     /tmp/cczm76Go.s:32     .text:000000000000002c .L0 
     /tmp/cczm76Go.s:33     .text:000000000000002c .L0 
     /tmp/cczm76Go.s:36     .text:0000000000000034 .L0 
     /tmp/cczm76Go.s:37     .text:0000000000000034 .L0 
     /tmp/cczm76Go.s:39     .text:0000000000000038 .L0 
     /tmp/cczm76Go.s:41     .text:000000000000003c .L0 
     /tmp/cczm76Go.s:42     .text:000000000000003c .L0 
     /tmp/cczm76Go.s:45     .text:0000000000000048 .L0 
     /tmp/cczm76Go.s:47     .text:000000000000004c .L0 
     /tmp/cczm76Go.s:49     .text:0000000000000050 .L0 
     /tmp/cczm76Go.s:52     .text:0000000000000058 .L0 
     /tmp/cczm76Go.s:54     .text:000000000000005c .L0 
     /tmp/cczm76Go.s:56     .text:0000000000000060 .L0 
     /tmp/cczm76Go.s:57     .text:0000000000000060 .L0 
     /tmp/cczm76Go.s:60     .text:0000000000000068 .L0 
     /tmp/cczm76Go.s:62     .text:000000000000006c .L0 
     /tmp/cczm76Go.s:63     .text:000000000000006c .L0 
     /tmp/cczm76Go.s:65     .text:0000000000000070 .L0 
     /tmp/cczm76Go.s:67     .text:0000000000000074 .L0 
     /tmp/cczm76Go.s:68     .text:0000000000000078 .L0 
     /tmp/cczm76Go.s:69     .text:0000000000000078 .L0 
     /tmp/cczm76Go.s:71     .text:000000000000007c .L0 
     /tmp/cczm76Go.s:73     .text:0000000000000080 .L0 
     /tmp/cczm76Go.s:79     .text:0000000000000080 _ZN15MemoryAllocator11getInstanceEv
     /tmp/cczm76Go.s:82     .text:0000000000000080 .L0 
     /tmp/cczm76Go.s:83     .text:0000000000000080 .L0 
     /tmp/cczm76Go.s:84     .text:0000000000000080 .L0 
     /tmp/cczm76Go.s:85     .text:0000000000000080 .L0 
     /tmp/cczm76Go.s:87     .text:0000000000000088 .L0 
     /tmp/cczm76Go.s:89     .text:000000000000008c .L0 
     /tmp/cczm76Go.s:90     .text:000000000000008c .L0 
     /tmp/cczm76Go.s:94     .text:0000000000000098 .L0 
     /tmp/cczm76Go.s:95     .text:000000000000009c .L0 
     /tmp/cczm76Go.s:98     .text:00000000000000a4 .L0 
     /tmp/cczm76Go.s:99     .text:00000000000000a4 .L0 
     /tmp/cczm76Go.s:101    .text:00000000000000a8 .L0 
     /tmp/cczm76Go.s:103    .text:00000000000000a8 .L0 
     /tmp/cczm76Go.s:104    .text:00000000000000a8 .L0 
     /tmp/cczm76Go.s:107    .text:00000000000000b0 .L0 
     /tmp/cczm76Go.s:108    .text:00000000000000b0 .L0 
     /tmp/cczm76Go.s:110    .text:00000000000000bc .L0 
     /tmp/cczm76Go.s:112    .text:00000000000000c0 .L0 
     /tmp/cczm76Go.s:113    .text:00000000000000c0 .L0 
     /tmp/cczm76Go.s:115    .text:00000000000000c4 .L0 
GAS LISTING /tmp/cczm76Go.s 			page 19


     /tmp/cczm76Go.s:117    .text:00000000000000c8 .L0 
     /tmp/cczm76Go.s:123    .text:00000000000000c8 _ZN15MemoryAllocator6mallocEm
     /tmp/cczm76Go.s:126    .text:00000000000000c8 .L0 
     /tmp/cczm76Go.s:128    .text:00000000000000c8 .L0 
     /tmp/cczm76Go.s:129    .text:00000000000000cc .L0 
     /tmp/cczm76Go.s:135    .text:00000000000000e0 .L0 
     /tmp/cczm76Go.s:136    .text:00000000000000e0 .L0 
     /tmp/cczm76Go.s:137    .text:00000000000000e0 .L0 
     /tmp/cczm76Go.s:138    .text:00000000000000e0 .L0 
     /tmp/cczm76Go.s:139    .text:00000000000000e0 .L0 
     /tmp/cczm76Go.s:141    .text:00000000000000e4 .L0 
     /tmp/cczm76Go.s:143    .text:00000000000000e4 .L0 
     /tmp/cczm76Go.s:146    .text:00000000000000ec .L0 
     /tmp/cczm76Go.s:147    .text:00000000000000ec .L0 
     /tmp/cczm76Go.s:149    .text:00000000000000f0 .L0 
     /tmp/cczm76Go.s:151    .text:00000000000000f4 .L0 
     /tmp/cczm76Go.s:153    .text:00000000000000f8 .L0 
     /tmp/cczm76Go.s:156    .text:00000000000000fc .L0 
     /tmp/cczm76Go.s:157    .text:00000000000000fc .L0 
     /tmp/cczm76Go.s:162    .text:0000000000000108 .L0 
     /tmp/cczm76Go.s:163    .text:0000000000000108 .L0 
     /tmp/cczm76Go.s:166    .text:000000000000010c .L0 
     /tmp/cczm76Go.s:167    .text:000000000000010c .L0 
     /tmp/cczm76Go.s:171    .text:0000000000000110 .L0 
     /tmp/cczm76Go.s:172    .text:0000000000000110 .L0 
     /tmp/cczm76Go.s:174    .text:0000000000000114 .L0 
     /tmp/cczm76Go.s:176    .text:0000000000000118 .L0 
     /tmp/cczm76Go.s:179    .text:000000000000011c .L0 
     /tmp/cczm76Go.s:180    .text:000000000000011c .L0 
     /tmp/cczm76Go.s:182    .text:0000000000000120 .L0 
     /tmp/cczm76Go.s:185    .text:0000000000000124 .L0 
     /tmp/cczm76Go.s:188    .text:0000000000000128 .L0 
     /tmp/cczm76Go.s:190    .text:000000000000012c .L0 
     /tmp/cczm76Go.s:191    .text:000000000000012c .L0 
     /tmp/cczm76Go.s:193    .text:0000000000000130 .L0 
     /tmp/cczm76Go.s:196    .text:0000000000000134 .L0 
     /tmp/cczm76Go.s:197    .text:0000000000000134 .L0 
     /tmp/cczm76Go.s:199    .text:0000000000000138 .L0 
     /tmp/cczm76Go.s:200    .text:0000000000000138 .L0 
     /tmp/cczm76Go.s:203    .text:000000000000013c .L0 
     /tmp/cczm76Go.s:207    .text:0000000000000144 .L0 
     /tmp/cczm76Go.s:208    .text:0000000000000144 .L0 
     /tmp/cczm76Go.s:211    .text:0000000000000148 .L0 
     /tmp/cczm76Go.s:214    .text:000000000000014c .L0 
     /tmp/cczm76Go.s:215    .text:000000000000014c .L0 
     /tmp/cczm76Go.s:218    .text:0000000000000150 .L0 
     /tmp/cczm76Go.s:221    .text:0000000000000154 .L0 
     /tmp/cczm76Go.s:222    .text:0000000000000154 .L0 
     /tmp/cczm76Go.s:226    .text:000000000000015c .L0 
     /tmp/cczm76Go.s:227    .text:000000000000015c .L0 
     /tmp/cczm76Go.s:229    .text:0000000000000160 .L0 
     /tmp/cczm76Go.s:231    .text:0000000000000164 .L0 
     /tmp/cczm76Go.s:232    .text:0000000000000164 .L0 
     /tmp/cczm76Go.s:234    .text:0000000000000168 .L0 
     /tmp/cczm76Go.s:242    .text:0000000000000170 .L0 
     /tmp/cczm76Go.s:243    .text:0000000000000170 .L0 
     /tmp/cczm76Go.s:247    .text:000000000000017c .L0 
GAS LISTING /tmp/cczm76Go.s 			page 20


     /tmp/cczm76Go.s:248    .text:000000000000017c .L0 
     /tmp/cczm76Go.s:254    .text:0000000000000180 .L0 
     /tmp/cczm76Go.s:261    .text:0000000000000188 .L0 
     /tmp/cczm76Go.s:262    .text:0000000000000188 .L0 
     /tmp/cczm76Go.s:264    .text:000000000000018c .L0 
     /tmp/cczm76Go.s:266    .text:0000000000000190 .L0 
     /tmp/cczm76Go.s:270    .text:0000000000000194 .L0 
     /tmp/cczm76Go.s:271    .text:0000000000000194 .L0 
     /tmp/cczm76Go.s:279    .text:00000000000001a0 .L0 
     /tmp/cczm76Go.s:280    .text:00000000000001a0 .L0 
     /tmp/cczm76Go.s:282    .text:00000000000001a4 .L0 
     /tmp/cczm76Go.s:283    .text:00000000000001a4 .L0 
     /tmp/cczm76Go.s:286    .text:00000000000001a8 .L0 
     /tmp/cczm76Go.s:287    .text:00000000000001a8 .L0 
     /tmp/cczm76Go.s:292    .text:00000000000001b4 .L0 
     /tmp/cczm76Go.s:293    .text:00000000000001b4 .L0 
     /tmp/cczm76Go.s:295    .text:00000000000001bc .L0 
     /tmp/cczm76Go.s:296    .text:00000000000001bc .L0 
     /tmp/cczm76Go.s:298    .text:00000000000001c0 .L0 
     /tmp/cczm76Go.s:299    .text:00000000000001c0 .L0 
     /tmp/cczm76Go.s:301    .text:00000000000001c4 .L0 
     /tmp/cczm76Go.s:303    .text:00000000000001c8 .L0 
     /tmp/cczm76Go.s:305    .text:00000000000001cc .L0 
     /tmp/cczm76Go.s:307    .text:00000000000001d0 .L0 
     /tmp/cczm76Go.s:311    .text:00000000000001d4 .L0 
     /tmp/cczm76Go.s:314    .text:00000000000001d4 .L0 
     /tmp/cczm76Go.s:317    .text:00000000000001d8 .L0 
     /tmp/cczm76Go.s:323    .text:00000000000001e0 .L0 
     /tmp/cczm76Go.s:325    .text:00000000000001e8 .L0 
     /tmp/cczm76Go.s:331    .text:00000000000001e8 _ZN15MemoryAllocator9tryToJoinEPNS_11BlockHeaderE
     /tmp/cczm76Go.s:334    .text:00000000000001e8 .L0 
     /tmp/cczm76Go.s:336    .text:00000000000001e8 .L0 
     /tmp/cczm76Go.s:337    .text:00000000000001ec .L0 
     /tmp/cczm76Go.s:339    .text:00000000000001f0 .L0 
     /tmp/cczm76Go.s:341    .text:00000000000001f4 .L0 
     /tmp/cczm76Go.s:343    .text:00000000000001f4 .L0 
     /tmp/cczm76Go.s:345    .text:00000000000001f8 .L0 
     /tmp/cczm76Go.s:347    .text:00000000000001fc .L0 
     /tmp/cczm76Go.s:349    .text:0000000000000200 .L0 
     /tmp/cczm76Go.s:350    .text:0000000000000200 .L0 
     /tmp/cczm76Go.s:352    .text:0000000000000204 .L0 
     /tmp/cczm76Go.s:355    .text:000000000000020c .L0 
     /tmp/cczm76Go.s:357    .text:0000000000000210 .L0 
     /tmp/cczm76Go.s:358    .text:0000000000000210 .L0 
     /tmp/cczm76Go.s:360    .text:0000000000000214 .L0 
     /tmp/cczm76Go.s:364    .text:0000000000000220 .L0 
     /tmp/cczm76Go.s:365    .text:0000000000000220 .L0 
     /tmp/cczm76Go.s:367    .text:0000000000000224 .L0 
     /tmp/cczm76Go.s:369    .text:0000000000000228 .L0 
     /tmp/cczm76Go.s:370    .text:0000000000000228 .L0 
     /tmp/cczm76Go.s:374    .text:000000000000022c .L0 
     /tmp/cczm76Go.s:375    .text:0000000000000230 .L0 
     /tmp/cczm76Go.s:376    .text:0000000000000230 .L0 
     /tmp/cczm76Go.s:377    .text:0000000000000230 .L0 
     /tmp/cczm76Go.s:379    .text:0000000000000234 .L0 
     /tmp/cczm76Go.s:383    .text:0000000000000238 .L0 
     /tmp/cczm76Go.s:385    .text:0000000000000238 .L0 
GAS LISTING /tmp/cczm76Go.s 			page 21


     /tmp/cczm76Go.s:396    .text:0000000000000248 .L0 
     /tmp/cczm76Go.s:399    .text:0000000000000250 .L0 
     /tmp/cczm76Go.s:405    .text:0000000000000250 _ZN15MemoryAllocator4freeEPv
     /tmp/cczm76Go.s:408    .text:0000000000000250 .L0 
     /tmp/cczm76Go.s:410    .text:0000000000000250 .L0 
     /tmp/cczm76Go.s:411    .text:0000000000000250 .L0 
     /tmp/cczm76Go.s:413    .text:0000000000000254 .L0 
     /tmp/cczm76Go.s:414    .text:0000000000000258 .L0 
     /tmp/cczm76Go.s:421    .text:0000000000000270 .L0 
     /tmp/cczm76Go.s:422    .text:0000000000000270 .L0 
     /tmp/cczm76Go.s:423    .text:0000000000000270 .L0 
     /tmp/cczm76Go.s:424    .text:0000000000000270 .L0 
     /tmp/cczm76Go.s:425    .text:0000000000000270 .L0 
     /tmp/cczm76Go.s:426    .text:0000000000000270 .L0 
     /tmp/cczm76Go.s:428    .text:0000000000000274 .L0 
     /tmp/cczm76Go.s:432    .text:000000000000027c .L0 
     /tmp/cczm76Go.s:435    .text:0000000000000288 .L0 
     /tmp/cczm76Go.s:437    .text:000000000000028c .L0 
     /tmp/cczm76Go.s:439    .text:0000000000000290 .L0 
     /tmp/cczm76Go.s:442    .text:000000000000029c .L0 
     /tmp/cczm76Go.s:444    .text:00000000000002a0 .L0 
     /tmp/cczm76Go.s:445    .text:00000000000002a0 .L0 
     /tmp/cczm76Go.s:448    .text:00000000000002a4 .L0 
     /tmp/cczm76Go.s:450    .text:00000000000002a8 .L0 
     /tmp/cczm76Go.s:452    .text:00000000000002ac .L0 
     /tmp/cczm76Go.s:454    .text:00000000000002b0 .L0 
     /tmp/cczm76Go.s:456    .text:00000000000002b4 .L0 
     /tmp/cczm76Go.s:458    .text:00000000000002b8 .L0 
     /tmp/cczm76Go.s:459    .text:00000000000002b8 .L0 
     /tmp/cczm76Go.s:464    .text:00000000000002c4 .L0 
     /tmp/cczm76Go.s:465    .text:00000000000002c4 .L0 
     /tmp/cczm76Go.s:469    .text:00000000000002c8 .L0 
     /tmp/cczm76Go.s:470    .text:00000000000002c8 .L0 
     /tmp/cczm76Go.s:472    .text:00000000000002cc .L0 
     /tmp/cczm76Go.s:475    .text:00000000000002d0 .L0 
     /tmp/cczm76Go.s:476    .text:00000000000002d0 .L0 
     /tmp/cczm76Go.s:478    .text:00000000000002d4 .L0 
     /tmp/cczm76Go.s:481    .text:00000000000002d8 .L0 
     /tmp/cczm76Go.s:484    .text:00000000000002dc .L0 
     /tmp/cczm76Go.s:486    .text:00000000000002e0 .L0 
     /tmp/cczm76Go.s:488    .text:00000000000002e4 .L0 
     /tmp/cczm76Go.s:491    .text:00000000000002ec .L0 
     /tmp/cczm76Go.s:494    .text:00000000000002f0 .L0 
     /tmp/cczm76Go.s:496    .text:00000000000002f4 .L0 
     /tmp/cczm76Go.s:498    .text:00000000000002f8 .L0 
     /tmp/cczm76Go.s:500    .text:00000000000002fc .L0 
     /tmp/cczm76Go.s:503    .text:0000000000000300 .L0 
     /tmp/cczm76Go.s:504    .text:0000000000000300 .L0 
     /tmp/cczm76Go.s:506    .text:0000000000000304 .L0 
     /tmp/cczm76Go.s:507    .text:0000000000000304 .L0 
     /tmp/cczm76Go.s:511    .text:000000000000030c .L0 
     /tmp/cczm76Go.s:512    .text:000000000000030c .L0 
     /tmp/cczm76Go.s:514    .text:0000000000000310 .L0 
     /tmp/cczm76Go.s:518    .text:0000000000000314 .L0 
     /tmp/cczm76Go.s:519    .text:0000000000000314 .L0 
     /tmp/cczm76Go.s:523    .text:0000000000000320 .L0 
     /tmp/cczm76Go.s:524    .text:0000000000000320 .L0 
GAS LISTING /tmp/cczm76Go.s 			page 22


     /tmp/cczm76Go.s:528    .text:000000000000032c .L0 
     /tmp/cczm76Go.s:529    .text:000000000000032c .L0 
     /tmp/cczm76Go.s:533    .text:0000000000000338 .L0 
     /tmp/cczm76Go.s:534    .text:0000000000000338 .L0 
     /tmp/cczm76Go.s:538    .text:000000000000033c .L0 
     /tmp/cczm76Go.s:539    .text:0000000000000340 .L0 
     /tmp/cczm76Go.s:540    .text:0000000000000340 .L0 
     /tmp/cczm76Go.s:542    .text:0000000000000344 .L0 
     /tmp/cczm76Go.s:543    .text:0000000000000344 .L0 
     /tmp/cczm76Go.s:545    .text:0000000000000348 .L0 
     /tmp/cczm76Go.s:547    .text:000000000000034c .L0 
     /tmp/cczm76Go.s:550    .text:0000000000000350 .L0 
     /tmp/cczm76Go.s:552    .text:0000000000000354 .L0 
     /tmp/cczm76Go.s:555    .text:0000000000000358 .L0 
     /tmp/cczm76Go.s:559    .text:000000000000035c .L0 
     /tmp/cczm76Go.s:561    .text:000000000000035c .L0 
     /tmp/cczm76Go.s:566    .text:0000000000000364 .L0 
     /tmp/cczm76Go.s:567    .text:0000000000000364 .L0 
     /tmp/cczm76Go.s:568    .text:0000000000000364 .L0 
     /tmp/cczm76Go.s:569    .text:0000000000000364 .L0 
     /tmp/cczm76Go.s:570    .text:0000000000000364 .L0 
     /tmp/cczm76Go.s:571    .text:0000000000000364 .L0 
     /tmp/cczm76Go.s:572    .text:0000000000000364 .L0 
     /tmp/cczm76Go.s:574    .text:0000000000000364 .L0 
     /tmp/cczm76Go.s:577    .text:0000000000000368 .L0 
     /tmp/cczm76Go.s:580    .text:000000000000036c .L0 
     /tmp/cczm76Go.s:581    .text:000000000000036c .L0 
     /tmp/cczm76Go.s:582    .text:000000000000036c .L0 
     /tmp/cczm76Go.s:583    .text:000000000000036c .L0 
     /tmp/cczm76Go.s:584    .text:000000000000036c .L0 
     /tmp/cczm76Go.s:585    .text:000000000000036c .L0 
     /tmp/cczm76Go.s:586    .text:000000000000036c .L0 
     /tmp/cczm76Go.s:588    .text:000000000000036c .L0 
     /tmp/cczm76Go.s:599    .text:000000000000037c .L0 
     /tmp/cczm76Go.s:615    .text:0000000000000394 .L0 
     /tmp/cczm76Go.s:620    .text:00000000000003a4 .L0 
     /tmp/cczm76Go.s:626    .text:00000000000003a4 _Z7kmallocm
     /tmp/cczm76Go.s:629    .text:00000000000003a4 .L0 
     /tmp/cczm76Go.s:631    .text:00000000000003a4 .L0 
     /tmp/cczm76Go.s:632    .text:00000000000003a8 .L0 
     /tmp/cczm76Go.s:636    .text:00000000000003b4 .L0 
     /tmp/cczm76Go.s:637    .text:00000000000003b4 .L0 
     /tmp/cczm76Go.s:638    .text:00000000000003b4 .L0 
     /tmp/cczm76Go.s:640    .text:00000000000003b8 .L0 
     /tmp/cczm76Go.s:643    .text:00000000000003bc .L0 
     /tmp/cczm76Go.s:644    .text:00000000000003bc .L0 
     /tmp/cczm76Go.s:650    .text:00000000000003d0 .L0 
     /tmp/cczm76Go.s:651    .text:00000000000003d4 .L0 
     /tmp/cczm76Go.s:653    .text:00000000000003d8 .L0 
     /tmp/cczm76Go.s:654    .text:00000000000003d8 .L0 
     /tmp/cczm76Go.s:656    .text:00000000000003dc .L0 
     /tmp/cczm76Go.s:659    .text:00000000000003e0 .L0 
     /tmp/cczm76Go.s:661    .text:00000000000003e4 .L0 
     /tmp/cczm76Go.s:667    .text:00000000000003e4 _Z5kfreePv
     /tmp/cczm76Go.s:670    .text:00000000000003e4 .L0 
     /tmp/cczm76Go.s:672    .text:00000000000003e4 .L0 
     /tmp/cczm76Go.s:673    .text:00000000000003e8 .L0 
GAS LISTING /tmp/cczm76Go.s 			page 23


     /tmp/cczm76Go.s:677    .text:00000000000003f4 .L0 
     /tmp/cczm76Go.s:678    .text:00000000000003f4 .L0 
     /tmp/cczm76Go.s:679    .text:00000000000003f4 .L0 
     /tmp/cczm76Go.s:681    .text:00000000000003f8 .L0 
     /tmp/cczm76Go.s:684    .text:00000000000003fc .L0 
     /tmp/cczm76Go.s:685    .text:00000000000003fc .L0 
     /tmp/cczm76Go.s:691    .text:0000000000000410 .L0 
     /tmp/cczm76Go.s:692    .text:0000000000000414 .L0 
     /tmp/cczm76Go.s:694    .text:0000000000000418 .L0 
     /tmp/cczm76Go.s:695    .text:0000000000000418 .L0 
     /tmp/cczm76Go.s:697    .text:000000000000041c .L0 
     /tmp/cczm76Go.s:700    .text:0000000000000420 .L0 
     /tmp/cczm76Go.s:702    .text:0000000000000424 .L0 
     /tmp/cczm76Go.s:711    .bss:0000000000000000 _ZN15MemoryAllocator8instanceE
     /tmp/cczm76Go.s:708    .bss:0000000000000000 .LANCHOR0
     /tmp/cczm76Go.s:721    .text:0000000000000424 .L0 
     /tmp/cczm76Go.s:22     .text:000000000000000c .L0 
     /tmp/cczm76Go.s:24     .text:0000000000000018 .L0 
     /tmp/cczm76Go.s:42     .text:000000000000003c .L0 
     /tmp/cczm76Go.s:85     .text:0000000000000080 .L0 
     /tmp/cczm76Go.s:90     .text:000000000000008c .L0 
     /tmp/cczm76Go.s:108    .text:00000000000000b0 .L0 
     /tmp/cczm76Go.s:432    .text:000000000000027c .L0 
     /tmp/cczm76Go.s:439    .text:0000000000000290 .L0 
     /tmp/cczm76Go.s:92     .text:0000000000000098 .L9
     /tmp/cczm76Go.s:320    .text:00000000000001e0 .L20
     /tmp/cczm76Go.s:186    .text:0000000000000128 .L12
     /tmp/cczm76Go.s:169    .text:0000000000000110 .L13
     /tmp/cczm76Go.s:238    .text:0000000000000170 .L22
     /tmp/cczm76Go.s:258    .text:0000000000000188 .L15
     /tmp/cczm76Go.s:250    .text:0000000000000180 .L23
     /tmp/cczm76Go.s:276    .text:00000000000001a0 .L17
     /tmp/cczm76Go.s:291    .text:00000000000001b4 .L10
     /tmp/cczm76Go.s:310    .text:00000000000001d4 .L24
     /tmp/cczm76Go.s:268    .text:0000000000000194 .L19
     /tmp/cczm76Go.s:382    .text:0000000000000238 .L27
     /tmp/cczm76Go.s:389    .text:0000000000000240 .L28
     /tmp/cczm76Go.s:394    .text:0000000000000248 .L29
     /tmp/cczm76Go.s:372    .text:000000000000022c .L26
     /tmp/cczm76Go.s:565    .text:0000000000000364 .L39
     /tmp/cczm76Go.s:579    .text:000000000000036c .L40
     /tmp/cczm76Go.s:592    .text:0000000000000374 .L41
     /tmp/cczm76Go.s:597    .text:000000000000037c .L42
     /tmp/cczm76Go.s:603    .text:0000000000000384 .L43
     /tmp/cczm76Go.s:608    .text:000000000000038c .L44
     /tmp/cczm76Go.s:482    .text:00000000000002dc .L33
     /tmp/cczm76Go.s:467    .text:00000000000002c8 .L34
     /tmp/cczm76Go.s:492    .text:00000000000002f0 .L35
     /tmp/cczm76Go.s:613    .text:0000000000000394 .L45
     /tmp/cczm76Go.s:501    .text:0000000000000300 .L36
     /tmp/cczm76Go.s:617    .text:000000000000039c .L46
     /tmp/cczm76Go.s:558    .text:000000000000035c .L51
     /tmp/cczm76Go.s:516    .text:0000000000000314 .L38
     /tmp/cczm76Go.s:536    .text:000000000000033c .L32
     /tmp/cczm76Go.s:1854   .debug_abbrev:0000000000000000 .Ldebug_abbrev0
     /tmp/cczm76Go.s:3461   .debug_str:00000000000007cb .LASF114
     /tmp/cczm76Go.s:3471   .debug_str:00000000000008a1 .LASF115
GAS LISTING /tmp/cczm76Go.s 			page 24


     /tmp/cczm76Go.s:3353   .debug_str:00000000000003f9 .LASF116
     /tmp/cczm76Go.s:5      .text:0000000000000000 .Ltext0
     /tmp/cczm76Go.s:714    .text:0000000000000424 .Letext0
     /tmp/cczm76Go.s:3231   .debug_line:0000000000000000 .Ldebug_line0
     /tmp/cczm76Go.s:3371   .debug_str:00000000000004e3 .LASF0
     /tmp/cczm76Go.s:3385   .debug_str:000000000000054c .LASF1
     /tmp/cczm76Go.s:3355   .debug_str:000000000000045a .LASF2
     /tmp/cczm76Go.s:3297   .debug_str:0000000000000276 .LASF3
     /tmp/cczm76Go.s:3327   .debug_str:0000000000000338 .LASF4
     /tmp/cczm76Go.s:3421   .debug_str:000000000000066b .LASF5
     /tmp/cczm76Go.s:3253   .debug_str:00000000000000dc .LASF6
     /tmp/cczm76Go.s:3389   .debug_str:0000000000000572 .LASF7
     /tmp/cczm76Go.s:3369   .debug_str:00000000000004d0 .LASF8
     /tmp/cczm76Go.s:3455   .debug_str:0000000000000787 .LASF9
     /tmp/cczm76Go.s:3315   .debug_str:00000000000002e4 .LASF10
     /tmp/cczm76Go.s:3399   .debug_str:00000000000005c4 .LASF11
     /tmp/cczm76Go.s:3445   .debug_str:0000000000000720 .LASF12
     /tmp/cczm76Go.s:3257   .debug_str:00000000000000ea .LASF13
     /tmp/cczm76Go.s:3237   .debug_str:000000000000002a .LASF14
     /tmp/cczm76Go.s:3267   .debug_str:0000000000000135 .LASF15
     /tmp/cczm76Go.s:3415   .debug_str:0000000000000640 .LASF16
     /tmp/cczm76Go.s:3281   .debug_str:00000000000001b8 .LASF17
     /tmp/cczm76Go.s:3349   .debug_str:00000000000003de .LASF27
     /tmp/cczm76Go.s:3259   .debug_str:00000000000000fa .LASF86
     /tmp/cczm76Go.s:3433   .debug_str:00000000000006e4 .LASF18
     /tmp/cczm76Go.s:3303   .debug_str:0000000000000297 .LASF19
     /tmp/cczm76Go.s:3479   .debug_str:00000000000008cc .LASF20
     /tmp/cczm76Go.s:3443   .debug_str:0000000000000714 .LASF117
     /tmp/cczm76Go.s:3251   .debug_str:00000000000000b8 .LASF118
     /tmp/cczm76Go.s:3255   .debug_str:00000000000000e3 .LASF21
     /tmp/cczm76Go.s:3403   .debug_str:00000000000005d8 .LASF22
     /tmp/cczm76Go.s:3409   .debug_str:0000000000000600 .LASF23
     /tmp/cczm76Go.s:3293   .debug_str:0000000000000240 .LASF30
     /tmp/cczm76Go.s:3233   .debug_str:0000000000000000 .LASF24
     /tmp/cczm76Go.s:3383   .debug_str:0000000000000546 .LASF25
     /tmp/cczm76Go.s:3377   .debug_str:0000000000000525 .LASF104
     /tmp/cczm76Go.s:3269   .debug_str:0000000000000141 .LASF119
     /tmp/cczm76Go.s:3273   .debug_str:000000000000016e .LASF120
     /tmp/cczm76Go.s:3299   .debug_str:000000000000027c .LASF40
     /tmp/cczm76Go.s:3289   .debug_str:00000000000001f7 .LASF42
     /tmp/cczm76Go.s:3307   .debug_str:00000000000002a1 .LASF26
     /tmp/cczm76Go.s:3321   .debug_str:0000000000000326 .LASF28
     /tmp/cczm76Go.s:3305   .debug_str:000000000000029c .LASF29
     /tmp/cczm76Go.s:3435   .debug_str:00000000000006e9 .LASF31
     /tmp/cczm76Go.s:3391   .debug_str:0000000000000585 .LASF32
     /tmp/cczm76Go.s:3423   .debug_str:000000000000067d .LASF33
     /tmp/cczm76Go.s:3323   .debug_str:000000000000032c .LASF34
     /tmp/cczm76Go.s:3393   .debug_str:000000000000058c .LASF35
     /tmp/cczm76Go.s:3465   .debug_str:0000000000000888 .LASF36
     /tmp/cczm76Go.s:3367   .debug_str:00000000000004ba .LASF37
     /tmp/cczm76Go.s:3311   .debug_str:00000000000002cc .LASF38
     /tmp/cczm76Go.s:3247   .debug_str:000000000000008b .LASF39
     /tmp/cczm76Go.s:3425   .debug_str:0000000000000690 .LASF121
     /tmp/cczm76Go.s:3249   .debug_str:00000000000000a1 .LASF122
     /tmp/cczm76Go.s:3431   .debug_str:00000000000006d1 .LASF41
     /tmp/cczm76Go.s:3291   .debug_str:0000000000000229 .LASF43
     /tmp/cczm76Go.s:3343   .debug_str:00000000000003ae .LASF44
GAS LISTING /tmp/cczm76Go.s 			page 25


     /tmp/cczm76Go.s:3325   .debug_str:0000000000000333 .LASF45
     /tmp/cczm76Go.s:3373   .debug_str:00000000000004f0 .LASF48
     /tmp/cczm76Go.s:3411   .debug_str:000000000000061d .LASF46
     /tmp/cczm76Go.s:3363   .debug_str:0000000000000497 .LASF47
     /tmp/cczm76Go.s:3319   .debug_str:000000000000030f .LASF49
     /tmp/cczm76Go.s:3239   .debug_str:000000000000003a .LASF50
     /tmp/cczm76Go.s:3335   .debug_str:000000000000036b .LASF51
     /tmp/cczm76Go.s:3439   .debug_str:0000000000000703 .LASF52
     /tmp/cczm76Go.s:3295   .debug_str:0000000000000259 .LASF53
     /tmp/cczm76Go.s:3313   .debug_str:00000000000002dc .LASF54
     /tmp/cczm76Go.s:3333   .debug_str:000000000000034f .LASF55
     /tmp/cczm76Go.s:3357   .debug_str:0000000000000468 .LASF56
     /tmp/cczm76Go.s:3235   .debug_str:000000000000000c .LASF57
     /tmp/cczm76Go.s:3437   .debug_str:00000000000006fa .LASF58
     /tmp/cczm76Go.s:3337   .debug_str:0000000000000386 .LASF59
     /tmp/cczm76Go.s:3285   .debug_str:00000000000001d3 .LASF60
     /tmp/cczm76Go.s:3245   .debug_str:000000000000006e .LASF61
     /tmp/cczm76Go.s:3275   .debug_str:000000000000019a .LASF62
     /tmp/cczm76Go.s:3261   .debug_str:0000000000000106 .LASF63
     /tmp/cczm76Go.s:3345   .debug_str:00000000000003b8 .LASF64
     /tmp/cczm76Go.s:3449   .debug_str:0000000000000748 .LASF65
     /tmp/cczm76Go.s:3473   .debug_str:00000000000008b9 .LASF66
     /tmp/cczm76Go.s:3241   .debug_str:0000000000000043 .LASF67
     /tmp/cczm76Go.s:3477   .debug_str:00000000000008c5 .LASF68
     /tmp/cczm76Go.s:3457   .debug_str:0000000000000797 .LASF69
     /tmp/cczm76Go.s:3467   .debug_str:0000000000000895 .LASF70
     /tmp/cczm76Go.s:3429   .debug_str:00000000000006b9 .LASF71
     /tmp/cczm76Go.s:3441   .debug_str:000000000000070c .LASF72
     /tmp/cczm76Go.s:3427   .debug_str:00000000000006a0 .LASF73
     /tmp/cczm76Go.s:3277   .debug_str:00000000000001a2 .LASF74
     /tmp/cczm76Go.s:3287   .debug_str:00000000000001de .LASF75
     /tmp/cczm76Go.s:3381   .debug_str:000000000000053e .LASF76
     /tmp/cczm76Go.s:3271   .debug_str:0000000000000155 .LASF77
     /tmp/cczm76Go.s:3329   .debug_str:000000000000033f .LASF78
     /tmp/cczm76Go.s:3463   .debug_str:000000000000086d .LASF79
     /tmp/cczm76Go.s:3301   .debug_str:0000000000000286 .LASF80
     /tmp/cczm76Go.s:3309   .debug_str:00000000000002a6 .LASF81
     /tmp/cczm76Go.s:3379   .debug_str:000000000000052e .LASF82
     /tmp/cczm76Go.s:3395   .debug_str:0000000000000599 .LASF83
     /tmp/cczm76Go.s:3341   .debug_str:00000000000003a8 .LASF84
     /tmp/cczm76Go.s:3243   .debug_str:000000000000005b .LASF85
     /tmp/cczm76Go.s:3263   .debug_str:000000000000011f .LASF87
     /tmp/cczm76Go.s:3407   .debug_str:00000000000005fb .LASF88
     /tmp/cczm76Go.s:3469   .debug_str:000000000000089c .LASF89
     /tmp/cczm76Go.s:3375   .debug_str:0000000000000503 .LASF90
     /tmp/cczm76Go.s:3283   .debug_str:00000000000001ce .LASF91
     /tmp/cczm76Go.s:3359   .debug_str:0000000000000474 .LASF92
     /tmp/cczm76Go.s:3401   .debug_str:00000000000005d3 .LASF93
     /tmp/cczm76Go.s:3419   .debug_str:000000000000065b .LASF94
     /tmp/cczm76Go.s:3365   .debug_str:00000000000004a1 .LASF95
     /tmp/cczm76Go.s:3459   .debug_str:00000000000007af .LASF96
     /tmp/cczm76Go.s:3361   .debug_str:0000000000000479 .LASF97
     /tmp/cczm76Go.s:3265   .debug_str:0000000000000124 .LASF98
     /tmp/cczm76Go.s:3447   .debug_str:000000000000072f .LASF99
     /tmp/cczm76Go.s:3331   .debug_str:0000000000000349 .LASF100
     /tmp/cczm76Go.s:3317   .debug_str:00000000000002f2 .LASF101
     /tmp/cczm76Go.s:3339   .debug_str:00000000000003a0 .LASF102
GAS LISTING /tmp/cczm76Go.s 			page 26


     /tmp/cczm76Go.s:3347   .debug_str:00000000000003bf .LASF103
     /tmp/cczm76Go.s:3387   .debug_str:000000000000055f .LASF105
     /tmp/cczm76Go.s:3453   .debug_str:0000000000000768 .LASF123
     /tmp/cczm76Go.s:3397   .debug_str:00000000000005be .LASF106
     /tmp/cczm76Go.s:3351   .debug_str:00000000000003ee .LASF107
     /tmp/cczm76Go.s:668    .text:00000000000003e4 .LFB42
     /tmp/cczm76Go.s:703    .text:0000000000000424 .LFE42
     /tmp/cczm76Go.s:3475   .debug_str:00000000000008c0 .LASF110
     /tmp/cczm76Go.s:2734   .debug_loc:0000000000000000 .LLST15
     /tmp/cczm76Go.s:686    .text:0000000000000404 .LVL72
     /tmp/cczm76Go.s:689    .text:0000000000000410 .LVL73
     /tmp/cczm76Go.s:3451   .debug_str:0000000000000760 .LASF108
     /tmp/cczm76Go.s:3413   .debug_str:0000000000000634 .LASF109
     /tmp/cczm76Go.s:627    .text:00000000000003a4 .LFB41
     /tmp/cczm76Go.s:662    .text:00000000000003e4 .LFE41
     /tmp/cczm76Go.s:2752   .debug_loc:000000000000004c .LLST14
     /tmp/cczm76Go.s:645    .text:00000000000003c4 .LVL68
     /tmp/cczm76Go.s:648    .text:00000000000003d0 .LVL69
     /tmp/cczm76Go.s:332    .text:00000000000001e8 .LFB40
     /tmp/cczm76Go.s:400    .text:0000000000000250 .LFE40
     /tmp/cczm76Go.s:2770   .debug_loc:0000000000000098 .LLST8
     /tmp/cczm76Go.s:406    .text:0000000000000250 .LFB39
     /tmp/cczm76Go.s:621    .text:00000000000003a4 .LFE39
     /tmp/cczm76Go.s:3405   .debug_str:00000000000005f6 .LASF112
     /tmp/cczm76Go.s:2817   .debug_loc:000000000000014c .LLST9
     /tmp/cczm76Go.s:2890   .debug_loc:0000000000000292 .LLST10
     /tmp/cczm76Go.s:3417   .debug_str:0000000000000656 .LASF111
     /tmp/cczm76Go.s:2920   .debug_loc:0000000000000317 .LLST11
     /tmp/cczm76Go.s:2935   .debug_loc:0000000000000360 .LLST12
     /tmp/cczm76Go.s:2965   .debug_loc:00000000000003e5 .LLST13
     /tmp/cczm76Go.s:462    .text:00000000000002c4 .LVL40
     /tmp/cczm76Go.s:521    .text:0000000000000320 .LVL46
     /tmp/cczm76Go.s:526    .text:000000000000032c .LVL47
     /tmp/cczm76Go.s:531    .text:0000000000000338 .LVL48
     /tmp/cczm76Go.s:124    .text:00000000000000c8 .LFB38
     /tmp/cczm76Go.s:326    .text:00000000000001e8 .LFE38
     /tmp/cczm76Go.s:2988   .debug_loc:0000000000000454 .LLST0
     /tmp/cczm76Go.s:3014   .debug_loc:00000000000004c6 .LLST1
     /tmp/cczm76Go.s:3091   .debug_loc:00000000000005b6 .LLST2
     /tmp/cczm76Go.s:3117   .debug_loc:0000000000000628 .LLST3
     /tmp/cczm76Go.s:3145   .debug_loc:00000000000006ab .LLST4
     /tmp/cczm76Go.s:3279   .debug_str:00000000000001aa .LASF113
     /tmp/cczm76Go.s:3153   .debug_loc:00000000000006cf .LLST5
     /tmp/cczm76Go.s:3192   .debug_loc:000000000000075d .LLST6
     /tmp/cczm76Go.s:3223   .debug_ranges:0000000000000000 .Ldebug_ranges0
     /tmp/cczm76Go.s:3199   .debug_loc:0000000000000780 .LLST7
     /tmp/cczm76Go.s:160    .text:0000000000000108 .LVL4
     /tmp/cczm76Go.s:245    .text:000000000000017c .LVL17
     /tmp/cczm76Go.s:289    .text:00000000000001b4 .LVL25
     /tmp/cczm76Go.s:80     .text:0000000000000080 .LFB37
     /tmp/cczm76Go.s:118    .text:00000000000000c8 .LFE37
     /tmp/cczm76Go.s:105    .text:00000000000000b0 .LVL0
     /tmp/cczm76Go.s:10     .text:0000000000000000 .LFB36
     /tmp/cczm76Go.s:74     .text:0000000000000080 .LFE36
     /tmp/cczm76Go.s:671    .text:00000000000003e4 .LVL71
     /tmp/cczm76Go.s:698    .text:000000000000041c .LVL74
     /tmp/cczm76Go.s:630    .text:00000000000003a4 .LVL67
GAS LISTING /tmp/cczm76Go.s 			page 27


     /tmp/cczm76Go.s:657    .text:00000000000003dc .LVL70
     /tmp/cczm76Go.s:335    .text:00000000000001e8 .LVL29
     /tmp/cczm76Go.s:371    .text:000000000000022c .LVL30
     /tmp/cczm76Go.s:381    .text:0000000000000238 .LVL31
     /tmp/cczm76Go.s:386    .text:000000000000023c .LVL32
     /tmp/cczm76Go.s:388    .text:0000000000000240 .LVL33
     /tmp/cczm76Go.s:391    .text:0000000000000244 .LVL34
     /tmp/cczm76Go.s:393    .text:0000000000000248 .LVL35
     /tmp/cczm76Go.s:397    .text:000000000000024c .LVL36
     /tmp/cczm76Go.s:409    .text:0000000000000250 .LVL37
     /tmp/cczm76Go.s:460    .text:00000000000002bc .LVL39
     /tmp/cczm76Go.s:553    .text:0000000000000354 .LVL51
     /tmp/cczm76Go.s:557    .text:000000000000035c .LVL52
     /tmp/cczm76Go.s:564    .text:0000000000000364 .LVL54
     /tmp/cczm76Go.s:575    .text:0000000000000368 .LVL55
     /tmp/cczm76Go.s:578    .text:000000000000036c .LVL56
     /tmp/cczm76Go.s:589    .text:0000000000000370 .LVL57
     /tmp/cczm76Go.s:591    .text:0000000000000374 .LVL58
     /tmp/cczm76Go.s:594    .text:0000000000000378 .LVL59
     /tmp/cczm76Go.s:596    .text:000000000000037c .LVL60
     /tmp/cczm76Go.s:600    .text:0000000000000380 .LVL61
     /tmp/cczm76Go.s:602    .text:0000000000000384 .LVL62
     /tmp/cczm76Go.s:605    .text:0000000000000388 .LVL63
     /tmp/cczm76Go.s:607    .text:000000000000038c .LVL64
     /tmp/cczm76Go.s:610    .text:0000000000000390 .LVL65
     /tmp/cczm76Go.s:548    .text:000000000000034c .LVL50
     /tmp/cczm76Go.s:612    .text:0000000000000394 .LVL66
     /tmp/cczm76Go.s:446    .text:00000000000002a4 .LVL38
     /tmp/cczm76Go.s:535    .text:000000000000033c .LVL49
     /tmp/cczm76Go.s:466    .text:00000000000002c8 .LVL41
     /tmp/cczm76Go.s:474    .text:00000000000002d0 .LVL42
     /tmp/cczm76Go.s:479    .text:00000000000002d8 .LVL43
     /tmp/cczm76Go.s:508    .text:0000000000000308 .LVL44
     /tmp/cczm76Go.s:515    .text:0000000000000314 .LVL45
     /tmp/cczm76Go.s:562    .text:0000000000000360 .LVL53
     /tmp/cczm76Go.s:127    .text:00000000000000c8 .LVL1
     /tmp/cczm76Go.s:158    .text:0000000000000100 .LVL3
     /tmp/cczm76Go.s:309    .text:00000000000001d4 .LVL26
     /tmp/cczm76Go.s:319    .text:00000000000001e0 .LVL28
     /tmp/cczm76Go.s:154    .text:00000000000000fc .LVL2
     /tmp/cczm76Go.s:209    .text:0000000000000148 .LVL10
     /tmp/cczm76Go.s:219    .text:0000000000000154 .LVL13
     /tmp/cczm76Go.s:237    .text:0000000000000170 .LVL16
     /tmp/cczm76Go.s:249    .text:0000000000000180 .LVL18
     /tmp/cczm76Go.s:257    .text:0000000000000188 .LVL20
     /tmp/cczm76Go.s:275    .text:00000000000001a0 .LVL23
     /tmp/cczm76Go.s:164    .text:000000000000010c .LVL5
     /tmp/cczm76Go.s:178    .text:000000000000011c .LVL7
     /tmp/cczm76Go.s:183    .text:0000000000000124 .LVL8
     /tmp/cczm76Go.s:284    .text:00000000000001a8 .LVL24
     /tmp/cczm76Go.s:168    .text:0000000000000110 .LVL6
     /tmp/cczm76Go.s:267    .text:0000000000000194 .LVL21
     /tmp/cczm76Go.s:315    .text:00000000000001d8 .LVL27
     /tmp/cczm76Go.s:194    .text:0000000000000134 .LVL9
     /tmp/cczm76Go.s:216    .text:0000000000000150 .LVL12
     /tmp/cczm76Go.s:223    .text:0000000000000158 .LVL14
     /tmp/cczm76Go.s:235    .text:000000000000016c .LVL15
GAS LISTING /tmp/cczm76Go.s 			page 28


     /tmp/cczm76Go.s:255    .text:0000000000000184 .LVL19
     /tmp/cczm76Go.s:273    .text:000000000000019c .LVL22
     /tmp/cczm76Go.s:212    .text:000000000000014c .LVL11
     /tmp/cczm76Go.s:722    .debug_info:0000000000000000 .Ldebug_info0
     /tmp/cczm76Go.s:205    .text:0000000000000144 .LBB3
     /tmp/cczm76Go.s:239    .text:0000000000000170 .LBE3
     /tmp/cczm76Go.s:252    .text:0000000000000180 .LBB4
     /tmp/cczm76Go.s:259    .text:0000000000000188 .LBE4

UNDEFINED SYMBOLS
HEAP_START_ADDR
HEAP_END_ADDR
_ZN5Mutex4waitEv
_ZN5Mutex6signalEv
