GAS LISTING /tmp/ccDyU3oD.s 			page 1


   1              		.file	"MemoryAllocator.cpp"
   2              		.option pic
   3              		.option norelax
   4              		.text
   5              	.Ltext0:
   6              		.align	2
   7              		.globl	_ZN15MemoryAllocatornwEm
   9              	_ZN15MemoryAllocatornwEm:
  10              	.LFB25:
  11              		.file 1 "src/MemoryAllocator.cpp"
   1:src/MemoryAllocator.cpp **** #include "../h/MemoryAllocator.h"
   2:src/MemoryAllocator.cpp **** 
   3:src/MemoryAllocator.cpp **** MemoryAllocator *MemoryAllocator::instance = nullptr;
   4:src/MemoryAllocator.cpp **** 
   5:src/MemoryAllocator.cpp **** void *kmalloc(size_t size) {
   6:src/MemoryAllocator.cpp ****     return MemoryAllocator::getInstance()->malloc(size);
   7:src/MemoryAllocator.cpp **** }
   8:src/MemoryAllocator.cpp **** 
   9:src/MemoryAllocator.cpp **** int kfree(void *addr) {
  10:src/MemoryAllocator.cpp ****     return MemoryAllocator::getInstance()->free(addr);
  11:src/MemoryAllocator.cpp **** }
  12:src/MemoryAllocator.cpp **** 
  13:src/MemoryAllocator.cpp **** void *MemoryAllocator::operator new(size_t) {
  12              		.loc 1 13 45
  13              		.cfi_startproc
  14 0000 130101FF 		addi	sp,sp,-16
  15              		.cfi_def_cfa_offset 16
  16 0004 23348100 		sd	s0,8(sp)
  17              		.cfi_offset 8, -8
  18 0008 13040101 		addi	s0,sp,16
  19              		.cfi_def_cfa 8, 0
  14:src/MemoryAllocator.cpp ****     return (void *) HEAP_START_ADDR;
  20              		.loc 1 14 5
  15:src/MemoryAllocator.cpp **** }
  21              		.loc 1 15 1 is_stmt 0
  22 000c 97070000 		la	a5,HEAP_START_ADDR
  22      83B70700 
  23 0014 03B50700 		ld	a0,0(a5)
  24 0018 03348100 		ld	s0,8(sp)
  25              		.cfi_restore 8
  26              		.cfi_def_cfa 2, 16
  27 001c 13010101 		addi	sp,sp,16
  28              		.cfi_def_cfa_offset 0
  29 0020 67800000 		jr	ra
  30              		.cfi_endproc
  31              	.LFE25:
  33              		.align	2
  34              		.globl	_ZN15MemoryAllocatorC2Ev
  36              	_ZN15MemoryAllocatorC2Ev:
  37              	.LFB30:
  16:src/MemoryAllocator.cpp **** 
  17:src/MemoryAllocator.cpp **** MemoryAllocator::MemoryAllocator() {
  38              		.loc 1 17 1 is_stmt 1
  39              		.cfi_startproc
  40              	.LVL0:
  41 0024 130101FF 		addi	sp,sp,-16
  42              		.cfi_def_cfa_offset 16
GAS LISTING /tmp/ccDyU3oD.s 			page 2


  43 0028 23348100 		sd	s0,8(sp)
  44              		.cfi_offset 8, -8
  45 002c 13040101 		addi	s0,sp,16
  46              		.cfi_def_cfa 8, 0
  47              	.LVL1:
  48              	.LBB21:
  49              	.LBB22:
  50              	.LBB23:
  51              	.LBB24:
  52              	.LBB25:
  53              		.file 2 "src/../h/KernelSemaphore.h"
   1:src/../h/KernelSemaphore.h **** #ifndef _KERNEL_SEMAPHORE_H
   2:src/../h/KernelSemaphore.h **** #define _KERNEL_SEMAPHORE_H
   3:src/../h/KernelSemaphore.h **** 
   4:src/../h/KernelSemaphore.h **** #include "KernelObject.h"
   5:src/../h/KernelSemaphore.h **** #include "ThreadList.h"
   6:src/../h/KernelSemaphore.h **** 
   7:src/../h/KernelSemaphore.h **** class TCB;
   8:src/../h/KernelSemaphore.h **** 
   9:src/../h/KernelSemaphore.h **** class KernelSemaphore : public KernelObject {
  10:src/../h/KernelSemaphore.h **** public:
  11:src/../h/KernelSemaphore.h ****     KernelSemaphore(int val = 1) : val(val) {}
  54              		.loc 2 11 43 is_stmt 0
  55 0030 13071000 		li	a4,1
  56 0034 2328E500 		sw	a4,16(a0)
  57              	.LVL2:
  58              	.LBB26:
  59              	.LBB27:
  60              		.file 3 "src/../h/ThreadList.h"
   1:src/../h/ThreadList.h **** #ifndef _THREADLIST_H
   2:src/../h/ThreadList.h **** #define _THREADLIST_H
   3:src/../h/ThreadList.h **** 
   4:src/../h/ThreadList.h **** #include "KernelObject.h"
   5:src/../h/ThreadList.h **** #include "ThreadNode.h"
   6:src/../h/ThreadList.h **** 
   7:src/../h/ThreadList.h **** class ThreadList : public KernelObject {
   8:src/../h/ThreadList.h **** public:
   9:src/../h/ThreadList.h ****     explicit ThreadList() = default;
  61              		.loc 3 9 14
  62 0038 233C0500 		sd	zero,24(a0)
  63 003c 23300502 		sd	zero,32(a0)
  64 0040 23340502 		sd	zero,40(a0)
  65 0044 23280502 		sw	zero,48(a0)
  66              	.LVL3:
  67              	.LBE27:
  68              	.LBE26:
  69              	.LBE25:
  70              	.LBE24:
  71              		.file 4 "src/../h/Mutex.h"
   1:src/../h/Mutex.h **** #ifndef _MUTEX_H
   2:src/../h/Mutex.h **** #define _MUTEX_H
   3:src/../h/Mutex.h **** 
   4:src/../h/Mutex.h **** class TCB;
   5:src/../h/Mutex.h **** 
   6:src/../h/Mutex.h **** #include "KernelSemaphore.h"
   7:src/../h/Mutex.h **** 
   8:src/../h/Mutex.h **** class Mutex : public KernelSemaphore {
GAS LISTING /tmp/ccDyU3oD.s 			page 3


  72              		.loc 4 8 7
  73 0048 97070000 		la	a5,_ZTV5Mutex
  73      83B70700 
  74 0050 93870701 		addi	a5,a5,16
  75 0054 2334F500 		sd	a5,8(a0)
  76 0058 233C0502 		sd	zero,56(a0)
  77              	.LVL4:
  78              	.LBE23:
  79              	.LBE22:
  18:src/MemoryAllocator.cpp ****     freeMemHead = (BlockHeader *) ((uint8 *) HEAP_START_ADDR + sizeof(MemoryAllocator));
  80              		.loc 1 18 5 is_stmt 1
  81              		.loc 1 18 19 is_stmt 0
  82 005c 17060000 		la	a2,HEAP_START_ADDR
  82      03360600 
  83 0064 83360600 		ld	a3,0(a2)
  84 0068 93870604 		addi	a5,a3,64
  85              		.loc 1 18 17
  86 006c 2330F500 		sd	a5,0(a0)
  19:src/MemoryAllocator.cpp ****     freeMemHead->size = (size_t) ((uint8 *) HEAP_END_ADDR - (uint8 *) HEAP_START_ADDR -
  87              		.loc 1 19 5 is_stmt 1
  88              		.loc 1 19 35 is_stmt 0
  89 0070 97070000 		la	a5,HEAP_END_ADDR
  89      83B70700 
  90 0078 83B70700 		ld	a5,0(a5)
  91              		.loc 1 19 61
  92 007c 03360600 		ld	a2,0(a2)
  93              		.loc 1 19 59
  94 0080 B387C740 		sub	a5,a5,a2
  20:src/MemoryAllocator.cpp ****                                             sizeof(MemoryAllocator) - sizeof(BlockHeader));
  95              		.loc 1 20 69
  96 0084 938787FA 		addi	a5,a5,-88
  19:src/MemoryAllocator.cpp ****     freeMemHead->size = (size_t) ((uint8 *) HEAP_END_ADDR - (uint8 *) HEAP_START_ADDR -
  97              		.loc 1 19 23
  98 0088 23B0F604 		sd	a5,64(a3)
  21:src/MemoryAllocator.cpp ****     freeMemHead->free = true;
  99              		.loc 1 21 5 is_stmt 1
 100 008c 83370500 		ld	a5,0(a0)
 101              		.loc 1 21 23 is_stmt 0
 102 0090 2384E700 		sb	a4,8(a5)
  22:src/MemoryAllocator.cpp ****     freeMemHead->next = nullptr;
 103              		.loc 1 22 5 is_stmt 1
 104 0094 83370500 		ld	a5,0(a0)
 105              		.loc 1 22 23 is_stmt 0
 106 0098 23B80700 		sd	zero,16(a5)
 107              	.LBE21:
  23:src/MemoryAllocator.cpp **** }
 108              		.loc 1 23 1
 109 009c 03348100 		ld	s0,8(sp)
 110              		.cfi_restore 8
 111              		.cfi_def_cfa 2, 16
 112 00a0 13010101 		addi	sp,sp,16
 113              		.cfi_def_cfa_offset 0
 114 00a4 67800000 		jr	ra
 115              		.cfi_endproc
 116              	.LFE30:
 118              		.globl	_ZN15MemoryAllocatorC1Ev
 119              		.set	_ZN15MemoryAllocatorC1Ev,_ZN15MemoryAllocatorC2Ev
GAS LISTING /tmp/ccDyU3oD.s 			page 4


 120              		.align	2
 121              		.globl	_ZN15MemoryAllocator11getInstanceEv
 123              	_ZN15MemoryAllocator11getInstanceEv:
 124              	.LFB32:
  24:src/MemoryAllocator.cpp **** 
  25:src/MemoryAllocator.cpp **** MemoryAllocator *MemoryAllocator::getInstance() {
 125              		.loc 1 25 49 is_stmt 1
 126              		.cfi_startproc
  26:src/MemoryAllocator.cpp ****     if (!instance) instance = new MemoryAllocator;
 127              		.loc 1 26 5
 128              		.loc 1 26 9 is_stmt 0
 129 00a8 97070000 		ld	a5,.LANCHOR0
 129      83B70700 
 130              		.loc 1 26 5
 131 00b0 63880700 		beqz	a5,.L11
  27:src/MemoryAllocator.cpp **** 
  28:src/MemoryAllocator.cpp ****     return instance;
 132              		.loc 1 28 5 is_stmt 1
  29:src/MemoryAllocator.cpp **** }
 133              		.loc 1 29 1 is_stmt 0
 134 00b4 17050000 		ld	a0,.LANCHOR0
 134      03350500 
 135 00bc 67800000 		ret
 136              	.L11:
  25:src/MemoryAllocator.cpp ****     if (!instance) instance = new MemoryAllocator;
 137              		.loc 1 25 49 discriminator 1
 138 00c0 130101FE 		addi	sp,sp,-32
 139              		.cfi_def_cfa_offset 32
 140 00c4 233C1100 		sd	ra,24(sp)
 141 00c8 23388100 		sd	s0,16(sp)
 142 00cc 23349100 		sd	s1,8(sp)
 143              		.cfi_offset 1, -8
 144              		.cfi_offset 8, -16
 145              		.cfi_offset 9, -24
 146 00d0 13040102 		addi	s0,sp,32
 147              		.cfi_def_cfa 8, 0
  26:src/MemoryAllocator.cpp **** 
 148              		.loc 1 26 20 is_stmt 1 discriminator 1
  26:src/MemoryAllocator.cpp **** 
 149              		.loc 1 26 35 is_stmt 0 discriminator 1
 150 00d4 13050004 		li	a0,64
 151 00d8 97000000 		call	_ZN15MemoryAllocatornwEm
 151      E7800000 
 152              	.LVL5:
 153 00e0 93040500 		mv	s1,a0
 154 00e4 97000000 		call	_ZN15MemoryAllocatorC1Ev
 154      E7800000 
 155              	.LVL6:
  26:src/MemoryAllocator.cpp **** 
 156              		.loc 1 26 29 discriminator 1
 157 00ec 97070000 		sd	s1,.LANCHOR0,a5
 157      23B09700 
  28:src/MemoryAllocator.cpp **** }
 158              		.loc 1 28 5 is_stmt 1 discriminator 1
 159              		.loc 1 29 1 is_stmt 0 discriminator 1
 160 00f4 17050000 		ld	a0,.LANCHOR0
 160      03350500 
GAS LISTING /tmp/ccDyU3oD.s 			page 5


 161 00fc 83308101 		ld	ra,24(sp)
 162              		.cfi_restore 1
 163 0100 03340101 		ld	s0,16(sp)
 164              		.cfi_restore 8
 165              		.cfi_def_cfa 2, 32
 166 0104 83348100 		ld	s1,8(sp)
 167              		.cfi_restore 9
 168 0108 13010102 		addi	sp,sp,32
 169              		.cfi_def_cfa_offset 0
 170 010c 67800000 		jr	ra
 171              		.cfi_endproc
 172              	.LFE32:
 174              		.align	2
 175              		.globl	_ZN15MemoryAllocator6mallocEm
 177              	_ZN15MemoryAllocator6mallocEm:
 178              	.LFB33:
  30:src/MemoryAllocator.cpp **** 
  31:src/MemoryAllocator.cpp **** void *MemoryAllocator::malloc(size_t size) {
 179              		.loc 1 31 44 is_stmt 1
 180              		.cfi_startproc
 181              	.LVL7:
 182 0110 130101FD 		addi	sp,sp,-48
 183              		.cfi_def_cfa_offset 48
 184 0114 23341102 		sd	ra,40(sp)
 185 0118 23308102 		sd	s0,32(sp)
 186 011c 233C9100 		sd	s1,24(sp)
 187 0120 23382101 		sd	s2,16(sp)
 188 0124 23343101 		sd	s3,8(sp)
 189 0128 23304101 		sd	s4,0(sp)
 190              		.cfi_offset 1, -8
 191              		.cfi_offset 8, -16
 192              		.cfi_offset 9, -24
 193              		.cfi_offset 18, -32
 194              		.cfi_offset 19, -40
 195              		.cfi_offset 20, -48
 196 012c 13040103 		addi	s0,sp,48
 197              		.cfi_def_cfa 8, 0
  32:src/MemoryAllocator.cpp ****     // Initial check
  33:src/MemoryAllocator.cpp ****     if (!size) return 0;
 198              		.loc 1 33 5
 199 0130 638C050E 		beqz	a1,.L22
 200 0134 93090500 		mv	s3,a0
  34:src/MemoryAllocator.cpp **** 
  35:src/MemoryAllocator.cpp ****     // Rounding and aligning size to size of memory blocks
  36:src/MemoryAllocator.cpp ****     size *= MEM_BLOCK_SIZE;
 201              		.loc 1 36 5
 202              		.loc 1 36 10 is_stmt 0
 203 0138 13996500 		slli	s2,a1,6
 204              	.LVL8:
  37:src/MemoryAllocator.cpp **** 
  38:src/MemoryAllocator.cpp ****     mutex.wait();
 205              		.loc 1 38 5 is_stmt 1
 206              		.loc 1 38 15 is_stmt 0
 207 013c 130A8500 		addi	s4,a0,8
 208 0140 13050A00 		mv	a0,s4
 209              	.LVL9:
 210 0144 97000000 		call	_ZN5Mutex4waitEv@plt
GAS LISTING /tmp/ccDyU3oD.s 			page 6


 210      E7800000 
 211              	.LVL10:
  39:src/MemoryAllocator.cpp ****     // Finding suitable free memory block using first fit algorithm
  40:src/MemoryAllocator.cpp ****     BlockHeader *curr = freeMemHead, *prev = nullptr;
 212              		.loc 1 40 5 is_stmt 1
 213              		.loc 1 40 18 is_stmt 0
 214 014c 83B40900 		ld	s1,0(s3)
 215              	.LVL11:
  41:src/MemoryAllocator.cpp ****     int i = 0;
 216              		.loc 1 41 5 is_stmt 1
  40:src/MemoryAllocator.cpp ****     int i = 0;
 217              		.loc 1 40 39 is_stmt 0
 218 0150 13070000 		li	a4,0
 219              	.LVL12:
 220              	.L15:
  42:src/MemoryAllocator.cpp ****     while (curr && curr->size < size)
 221              		.loc 1 42 5 is_stmt 1
 222              		.loc 1 42 17
 223 0154 638C0400 		beqz	s1,.L14
 224              		.loc 1 42 26 is_stmt 0 discriminator 1
 225 0158 83B70400 		ld	a5,0(s1)
 226              		.loc 1 42 17 discriminator 1
 227 015c 63F82701 		bgeu	a5,s2,.L14
  43:src/MemoryAllocator.cpp ****         prev = curr, curr = curr->next, i++;
 228              		.loc 1 43 9 is_stmt 1
 229              	.LVL13:
 230              		.loc 1 43 14 is_stmt 0
 231 0160 13870400 		mv	a4,s1
 232              		.loc 1 43 27
 233 0164 83B40401 		ld	s1,16(s1)
 234              	.LVL14:
  42:src/MemoryAllocator.cpp ****     while (curr && curr->size < size)
 235              		.loc 1 42 5
 236 0168 6FF0DFFE 		j	.L15
 237              	.L14:
  44:src/MemoryAllocator.cpp ****     if (!curr)  {
 238              		.loc 1 44 5 is_stmt 1
 239 016c 63840404 		beqz	s1,.L24
  45:src/MemoryAllocator.cpp ****         mutex.signal();
  46:src/MemoryAllocator.cpp ****         return nullptr;
  47:src/MemoryAllocator.cpp ****     }
  48:src/MemoryAllocator.cpp **** 
  49:src/MemoryAllocator.cpp ****     size_t remainingSize = curr->size - size;
 240              		.loc 1 49 5
 241              		.loc 1 49 34 is_stmt 0
 242 0170 83B70400 		ld	a5,0(s1)
 243              		.loc 1 49 12
 244 0174 B3872741 		sub	a5,a5,s2
 245              	.LVL15:
  50:src/MemoryAllocator.cpp ****     curr->size = size;
 246              		.loc 1 50 5 is_stmt 1
 247              		.loc 1 50 16 is_stmt 0
 248 0178 23B02401 		sd	s2,0(s1)
  51:src/MemoryAllocator.cpp ****     curr->free = false;
 249              		.loc 1 51 5 is_stmt 1
 250              		.loc 1 51 16 is_stmt 0
 251 017c 23840400 		sb	zero,8(s1)
GAS LISTING /tmp/ccDyU3oD.s 			page 7


  52:src/MemoryAllocator.cpp **** 
  53:src/MemoryAllocator.cpp ****     // Allocating new free memory block if enough size is left over
  54:src/MemoryAllocator.cpp ****     if (remainingSize >= MEM_BLOCK_SIZE + sizeof(BlockHeader)) {
 252              		.loc 1 54 5 is_stmt 1
 253              	.LBB28:
 254 0180 93067005 		li	a3,87
 255 0184 63F4F604 		bleu	a5,a3,.L17
 256              	.LBB29:
  55:src/MemoryAllocator.cpp ****         BlockHeader *elem = (BlockHeader *) ((uint8 *) curr + sizeof(BlockHeader) + size);
 257              		.loc 1 55 9
 258              		.loc 1 55 83 is_stmt 0
 259 0188 13098901 		addi	s2,s2,24
 260              	.LVL16:
 261              		.loc 1 55 22
 262 018c 33892401 		add	s2,s1,s2
 263              	.LVL17:
  56:src/MemoryAllocator.cpp ****         elem->size = remainingSize - sizeof(BlockHeader);
 264              		.loc 1 56 9 is_stmt 1
 265              		.loc 1 56 36 is_stmt 0
 266 0190 938787FE 		addi	a5,a5,-24
 267              	.LVL18:
 268              		.loc 1 56 20
 269 0194 2330F900 		sd	a5,0(s2)
 270              	.LVL19:
  57:src/MemoryAllocator.cpp ****         elem->free = true;
 271              		.loc 1 57 9 is_stmt 1
 272              		.loc 1 57 20 is_stmt 0
 273 0198 93071000 		li	a5,1
 274              	.LVL20:
 275 019c 2304F900 		sb	a5,8(s2)
  58:src/MemoryAllocator.cpp ****         elem->next = curr->next;
 276              		.loc 1 58 9 is_stmt 1
 277              		.loc 1 58 28 is_stmt 0
 278 01a0 83B70401 		ld	a5,16(s1)
 279              		.loc 1 58 20
 280 01a4 2338F900 		sd	a5,16(s2)
  59:src/MemoryAllocator.cpp ****         (!prev ? freeMemHead : prev->next) = elem;
 281              		.loc 1 59 9 is_stmt 1
 282              		.loc 1 59 44 is_stmt 0
 283 01a8 630E0700 		beqz	a4,.L25
 284              		.loc 1 59 44 discriminator 2
 285 01ac 23382701 		sd	s2,16(a4)
 286              	.LVL21:
 287 01b0 6F004003 		j	.L19
 288              	.LVL22:
 289              	.L24:
 290              	.LBE29:
 291              	.LBE28:
  45:src/MemoryAllocator.cpp ****         return nullptr;
 292              		.loc 1 45 9 is_stmt 1
  45:src/MemoryAllocator.cpp ****         return nullptr;
 293              		.loc 1 45 21 is_stmt 0
 294 01b4 13050A00 		mv	a0,s4
 295 01b8 97000000 		call	_ZN5Mutex6signalEv@plt
 295      E7800000 
 296              	.LVL23:
  46:src/MemoryAllocator.cpp ****     }
GAS LISTING /tmp/ccDyU3oD.s 			page 8


 297              		.loc 1 46 9 is_stmt 1
  46:src/MemoryAllocator.cpp ****     }
 298              		.loc 1 46 16 is_stmt 0
 299 01c0 6F008003 		j	.L12
 300              	.LVL24:
 301              	.L25:
 302              	.LBB31:
 303              	.LBB30:
 304              		.loc 1 59 44 discriminator 1
 305 01c4 23B02901 		sd	s2,0(s3)
 306              	.LVL25:
 307 01c8 6F00C001 		j	.L19
 308              	.LVL26:
 309              	.L17:
 310              	.LBE30:
  60:src/MemoryAllocator.cpp ****     } else {
  61:src/MemoryAllocator.cpp ****         // Removing whole free memory block from free memory list
  62:src/MemoryAllocator.cpp ****         (!prev ? freeMemHead : prev->next) = curr->next;
 311              		.loc 1 62 9 is_stmt 1
 312              		.loc 1 62 44 is_stmt 0
 313 01cc 63080704 		beqz	a4,.L26
 314              		.loc 1 62 52 discriminator 2
 315 01d0 83B60401 		ld	a3,16(s1)
 316              		.loc 1 62 44 discriminator 2
 317 01d4 2338D700 		sd	a3,16(a4)
 318              	.LVL27:
 319              	.L21:
  63:src/MemoryAllocator.cpp ****         curr->size += remainingSize;
 320              		.loc 1 63 9 is_stmt 1
 321              		.loc 1 63 20 is_stmt 0
 322 01d8 03B70400 		ld	a4,0(s1)
 323 01dc B307F700 		add	a5,a4,a5
 324              	.LVL28:
 325 01e0 23B0F400 		sd	a5,0(s1)
 326              	.LVL29:
 327              	.L19:
 328              	.LBE31:
  64:src/MemoryAllocator.cpp ****     }
  65:src/MemoryAllocator.cpp ****     curr->next = nullptr;
 329              		.loc 1 65 5 is_stmt 1
 330              		.loc 1 65 16 is_stmt 0
 331 01e4 23B80400 		sd	zero,16(s1)
  66:src/MemoryAllocator.cpp **** 
  67:src/MemoryAllocator.cpp ****     // Free memory start address after segment descriptor of allocated memory block
  68:src/MemoryAllocator.cpp ****     void *addr = (uint8 *) curr + sizeof(BlockHeader);
 332              		.loc 1 68 5 is_stmt 1
 333              		.loc 1 68 11 is_stmt 0
 334 01e8 93848401 		addi	s1,s1,24
 335              	.LVL30:
  69:src/MemoryAllocator.cpp **** 
  70:src/MemoryAllocator.cpp ****     mutex.signal();
 336              		.loc 1 70 5 is_stmt 1
 337              		.loc 1 70 17 is_stmt 0
 338 01ec 13050A00 		mv	a0,s4
 339 01f0 97000000 		call	_ZN5Mutex6signalEv@plt
 339      E7800000 
 340              	.LVL31:
GAS LISTING /tmp/ccDyU3oD.s 			page 9


  71:src/MemoryAllocator.cpp **** 
  72:src/MemoryAllocator.cpp ****     return addr;
 341              		.loc 1 72 5 is_stmt 1
 342              	.L12:
  73:src/MemoryAllocator.cpp **** }
 343              		.loc 1 73 1 is_stmt 0
 344 01f8 13850400 		mv	a0,s1
 345 01fc 83308102 		ld	ra,40(sp)
 346              		.cfi_remember_state
 347              		.cfi_restore 1
 348 0200 03340102 		ld	s0,32(sp)
 349              		.cfi_restore 8
 350              		.cfi_def_cfa 2, 48
 351 0204 83348101 		ld	s1,24(sp)
 352              		.cfi_restore 9
 353 0208 03390101 		ld	s2,16(sp)
 354              		.cfi_restore 18
 355 020c 83398100 		ld	s3,8(sp)
 356              		.cfi_restore 19
 357 0210 033A0100 		ld	s4,0(sp)
 358              		.cfi_restore 20
 359 0214 13010103 		addi	sp,sp,48
 360              		.cfi_def_cfa_offset 0
 361 0218 67800000 		jr	ra
 362              	.LVL32:
 363              	.L26:
 364              		.cfi_restore_state
 365              	.LBB32:
  62:src/MemoryAllocator.cpp ****         curr->size += remainingSize;
 366              		.loc 1 62 52 discriminator 1
 367 021c 03B70401 		ld	a4,16(s1)
 368              	.LVL33:
  62:src/MemoryAllocator.cpp ****         curr->size += remainingSize;
 369              		.loc 1 62 44 discriminator 1
 370 0220 23B0E900 		sd	a4,0(s3)
 371 0224 6FF05FFB 		j	.L21
 372              	.LVL34:
 373              	.L22:
 374              	.LBE32:
  33:src/MemoryAllocator.cpp **** 
 375              		.loc 1 33 23
 376 0228 93040000 		li	s1,0
 377 022c 6FF0DFFC 		j	.L12
 378              		.cfi_endproc
 379              	.LFE33:
 381              		.align	2
 382              		.globl	_Z7kmallocm
 384              	_Z7kmallocm:
 385              	.LFB23:
   5:src/MemoryAllocator.cpp ****     return MemoryAllocator::getInstance()->malloc(size);
 386              		.loc 1 5 28 is_stmt 1
 387              		.cfi_startproc
 388              	.LVL35:
 389 0230 130101FE 		addi	sp,sp,-32
 390              		.cfi_def_cfa_offset 32
 391 0234 233C1100 		sd	ra,24(sp)
 392 0238 23388100 		sd	s0,16(sp)
GAS LISTING /tmp/ccDyU3oD.s 			page 10


 393 023c 23349100 		sd	s1,8(sp)
 394              		.cfi_offset 1, -8
 395              		.cfi_offset 8, -16
 396              		.cfi_offset 9, -24
 397 0240 13040102 		addi	s0,sp,32
 398              		.cfi_def_cfa 8, 0
 399 0244 93040500 		mv	s1,a0
   6:src/MemoryAllocator.cpp **** }
 400              		.loc 1 6 5
   6:src/MemoryAllocator.cpp **** }
 401              		.loc 1 6 50 is_stmt 0
 402 0248 97000000 		call	_ZN15MemoryAllocator11getInstanceEv
 402      E7800000 
 403              	.LVL36:
 404 0250 93850400 		mv	a1,s1
 405 0254 97000000 		call	_ZN15MemoryAllocator6mallocEm
 405      E7800000 
 406              	.LVL37:
   7:src/MemoryAllocator.cpp **** 
 407              		.loc 1 7 1
 408 025c 83308101 		ld	ra,24(sp)
 409              		.cfi_restore 1
 410 0260 03340101 		ld	s0,16(sp)
 411              		.cfi_restore 8
 412              		.cfi_def_cfa 2, 32
 413 0264 83348100 		ld	s1,8(sp)
 414              		.cfi_restore 9
 415              	.LVL38:
 416 0268 13010102 		addi	sp,sp,32
 417              		.cfi_def_cfa_offset 0
 418 026c 67800000 		jr	ra
 419              		.cfi_endproc
 420              	.LFE23:
 422              		.align	2
 423              		.globl	_ZN15MemoryAllocator9tryToJoinEPNS_11BlockHeaderE
 425              	_ZN15MemoryAllocator9tryToJoinEPNS_11BlockHeaderE:
 426              	.LFB35:
  74:src/MemoryAllocator.cpp **** 
  75:src/MemoryAllocator.cpp **** int MemoryAllocator::free(void *addr) {
  76:src/MemoryAllocator.cpp ****     if (!addr
  77:src/MemoryAllocator.cpp ****         || (uint8 *) addr < (uint8 *) HEAP_START_ADDR + sizeof(MemoryAllocator) + sizeof(BlockHeade
  78:src/MemoryAllocator.cpp ****         || addr >= HEAP_END_ADDR) {
  79:src/MemoryAllocator.cpp ****         return -1;
  80:src/MemoryAllocator.cpp ****     }
  81:src/MemoryAllocator.cpp **** 
  82:src/MemoryAllocator.cpp ****     BlockHeader *elem = (BlockHeader *) ((uint8 *) addr - sizeof(BlockHeader));
  83:src/MemoryAllocator.cpp **** 
  84:src/MemoryAllocator.cpp ****     if (!elem || elem->free || elem->next) {
  85:src/MemoryAllocator.cpp ****         return -2;
  86:src/MemoryAllocator.cpp ****     }
  87:src/MemoryAllocator.cpp **** 
  88:src/MemoryAllocator.cpp ****     mutex.wait();
  89:src/MemoryAllocator.cpp **** 
  90:src/MemoryAllocator.cpp ****     BlockHeader *curr = freeMemHead, *prev = nullptr;
  91:src/MemoryAllocator.cpp ****     while (curr && curr < elem)
  92:src/MemoryAllocator.cpp ****         prev = curr, curr = curr->next;
  93:src/MemoryAllocator.cpp **** 
GAS LISTING /tmp/ccDyU3oD.s 			page 11


  94:src/MemoryAllocator.cpp ****     if ((prev && (uint8 *) prev + prev->size + sizeof(BlockHeader) > addr)
  95:src/MemoryAllocator.cpp ****         || (curr && (uint8 *) addr + elem->size  > (uint8 *) curr)) {
  96:src/MemoryAllocator.cpp ****         return -2;
  97:src/MemoryAllocator.cpp ****     }
  98:src/MemoryAllocator.cpp **** 
  99:src/MemoryAllocator.cpp ****     elem->next = curr;
 100:src/MemoryAllocator.cpp ****     elem->free = true;
 101:src/MemoryAllocator.cpp ****     (!prev ? freeMemHead : prev->next) = elem;
 102:src/MemoryAllocator.cpp **** 
 103:src/MemoryAllocator.cpp ****     tryToJoin(elem);
 104:src/MemoryAllocator.cpp ****     tryToJoin(prev);
 105:src/MemoryAllocator.cpp **** 
 106:src/MemoryAllocator.cpp ****     mutex.signal();
 107:src/MemoryAllocator.cpp **** 
 108:src/MemoryAllocator.cpp ****     return 0;
 109:src/MemoryAllocator.cpp **** }
 110:src/MemoryAllocator.cpp **** 
 111:src/MemoryAllocator.cpp **** int MemoryAllocator::tryToJoin(MemoryAllocator::BlockHeader *curr) {
 427              		.loc 1 111 68 is_stmt 1
 428              		.cfi_startproc
 429              	.LVL39:
 430 0270 130101FF 		addi	sp,sp,-16
 431              		.cfi_def_cfa_offset 16
 432 0274 23348100 		sd	s0,8(sp)
 433              		.cfi_offset 8, -8
 434 0278 13040101 		addi	s0,sp,16
 435              		.cfi_def_cfa 8, 0
 112:src/MemoryAllocator.cpp ****     if (!curr || !curr->next) return -1;
 436              		.loc 1 112 5
 437 027c 63020504 		beqz	a0,.L31
 438              		.loc 1 112 25 is_stmt 0 discriminator 2
 439 0280 03370501 		ld	a4,16(a0)
 440              		.loc 1 112 15 discriminator 2
 441 0284 63020704 		beqz	a4,.L32
 113:src/MemoryAllocator.cpp **** 
 114:src/MemoryAllocator.cpp ****     if ((uint8 *) curr + sizeof(BlockHeader) + curr->size != (uint8 *) curr->next) return -2;
 442              		.loc 1 114 5 is_stmt 1
 443              		.loc 1 114 54 is_stmt 0
 444 0288 83370500 		ld	a5,0(a0)
 445              		.loc 1 114 46
 446 028c 93868701 		addi	a3,a5,24
 447 0290 B306D500 		add	a3,a0,a3
 448              		.loc 1 114 5
 449 0294 631ED702 		bne	a4,a3,.L33
 115:src/MemoryAllocator.cpp **** 
 116:src/MemoryAllocator.cpp ****     curr->size += curr->next->size + sizeof(BlockHeader);
 450              		.loc 1 116 5 is_stmt 1
 451              		.loc 1 116 31 is_stmt 0
 452 0298 83360700 		ld	a3,0(a4)
 453              		.loc 1 116 16
 454 029c B387D700 		add	a5,a5,a3
 455 02a0 93878701 		addi	a5,a5,24
 456 02a4 2330F500 		sd	a5,0(a0)
 117:src/MemoryAllocator.cpp ****     curr->next = curr->next->next;
 457              		.loc 1 117 5 is_stmt 1
 458              		.loc 1 117 30 is_stmt 0
 459 02a8 83370701 		ld	a5,16(a4)
GAS LISTING /tmp/ccDyU3oD.s 			page 12


 460              		.loc 1 117 16
 461 02ac 2338F500 		sd	a5,16(a0)
 118:src/MemoryAllocator.cpp **** 
 119:src/MemoryAllocator.cpp ****     return 0;
 462              		.loc 1 119 5 is_stmt 1
 463              		.loc 1 119 12 is_stmt 0
 464 02b0 13050000 		li	a0,0
 465              	.LVL40:
 466              	.L30:
 120:src/MemoryAllocator.cpp **** }
 467              		.loc 1 120 1
 468 02b4 03348100 		ld	s0,8(sp)
 469              		.cfi_remember_state
 470              		.cfi_restore 8
 471              		.cfi_def_cfa 2, 16
 472 02b8 13010101 		addi	sp,sp,16
 473              		.cfi_def_cfa_offset 0
 474 02bc 67800000 		jr	ra
 475              	.LVL41:
 476              	.L31:
 477              		.cfi_restore_state
 112:src/MemoryAllocator.cpp **** 
 478              		.loc 1 112 39
 479 02c0 1305F0FF 		li	a0,-1
 480              	.LVL42:
 481 02c4 6FF01FFF 		j	.L30
 482              	.LVL43:
 483              	.L32:
 484 02c8 1305F0FF 		li	a0,-1
 485              	.LVL44:
 486 02cc 6FF09FFE 		j	.L30
 487              	.LVL45:
 488              	.L33:
 114:src/MemoryAllocator.cpp **** 
 489              		.loc 1 114 92
 490 02d0 1305E0FF 		li	a0,-2
 491              	.LVL46:
 492 02d4 6FF01FFE 		j	.L30
 493              		.cfi_endproc
 494              	.LFE35:
 496              		.align	2
 497              		.globl	_ZN15MemoryAllocator4freeEPv
 499              	_ZN15MemoryAllocator4freeEPv:
 500              	.LFB34:
  75:src/MemoryAllocator.cpp ****     if (!addr
 501              		.loc 1 75 39 is_stmt 1
 502              		.cfi_startproc
 503              	.LVL47:
  76:src/MemoryAllocator.cpp ****         || (uint8 *) addr < (uint8 *) HEAP_START_ADDR + sizeof(MemoryAllocator) + sizeof(BlockHeade
 504              		.loc 1 76 5
 505 02d8 63800512 		beqz	a1,.L43
  75:src/MemoryAllocator.cpp ****     if (!addr
 506              		.loc 1 75 39 is_stmt 0
 507 02dc 130101FC 		addi	sp,sp,-64
 508              		.cfi_def_cfa_offset 64
 509 02e0 233C1102 		sd	ra,56(sp)
 510 02e4 23388102 		sd	s0,48(sp)
GAS LISTING /tmp/ccDyU3oD.s 			page 13


 511 02e8 23349102 		sd	s1,40(sp)
 512 02ec 23302103 		sd	s2,32(sp)
 513 02f0 233C3101 		sd	s3,24(sp)
 514 02f4 23384101 		sd	s4,16(sp)
 515 02f8 23345101 		sd	s5,8(sp)
 516              		.cfi_offset 1, -8
 517              		.cfi_offset 8, -16
 518              		.cfi_offset 9, -24
 519              		.cfi_offset 18, -32
 520              		.cfi_offset 19, -40
 521              		.cfi_offset 20, -48
 522              		.cfi_offset 21, -56
 523 02fc 13040104 		addi	s0,sp,64
 524              		.cfi_def_cfa 8, 0
 525 0300 130A0500 		mv	s4,a0
 526 0304 13890500 		mv	s2,a1
  77:src/MemoryAllocator.cpp ****         || addr >= HEAP_END_ADDR) {
 527              		.loc 1 77 29
 528 0308 97070000 		la	a5,HEAP_START_ADDR
 528      83B70700 
 529 0310 83B70700 		ld	a5,0(a5)
  77:src/MemoryAllocator.cpp ****         || addr >= HEAP_END_ADDR) {
 530              		.loc 1 77 103
 531 0314 93870709 		addi	a5,a5,144
  77:src/MemoryAllocator.cpp ****         || addr >= HEAP_END_ADDR) {
 532              		.loc 1 77 9
 533 0318 63E4F50E 		bgtu	a5,a1,.L44
  78:src/MemoryAllocator.cpp ****         return -1;
 534              		.loc 1 78 17
 535 031c 97070000 		la	a5,HEAP_END_ADDR
 535      83B70700 
 536 0324 83B70700 		ld	a5,0(a5)
  78:src/MemoryAllocator.cpp ****         return -1;
 537              		.loc 1 78 9
 538 0328 63F0F50E 		bleu	a5,a1,.L45
  82:src/MemoryAllocator.cpp **** 
 539              		.loc 1 82 5 is_stmt 1
  82:src/MemoryAllocator.cpp **** 
 540              		.loc 1 82 18 is_stmt 0
 541 032c 938985FE 		addi	s3,a1,-24
 542              	.LVL48:
  84:src/MemoryAllocator.cpp ****         return -2;
 543              		.loc 1 84 5 is_stmt 1
 544 0330 6380090E 		beqz	s3,.L46
  84:src/MemoryAllocator.cpp ****         return -2;
 545              		.loc 1 84 24 is_stmt 0 discriminator 1
 546 0334 83C705FF 		lbu	a5,-16(a1)
  84:src/MemoryAllocator.cpp ****         return -2;
 547              		.loc 1 84 15 discriminator 1
 548 0338 6390070E 		bnez	a5,.L47
  84:src/MemoryAllocator.cpp ****         return -2;
 549              		.loc 1 84 38 discriminator 2
 550 033c 83B485FF 		ld	s1,-8(a1)
  84:src/MemoryAllocator.cpp ****         return -2;
 551              		.loc 1 84 29 discriminator 2
 552 0340 6390040E 		bnez	s1,.L48
  88:src/MemoryAllocator.cpp **** 
GAS LISTING /tmp/ccDyU3oD.s 			page 14


 553              		.loc 1 88 5 is_stmt 1
  88:src/MemoryAllocator.cpp **** 
 554              		.loc 1 88 15 is_stmt 0
 555 0344 930A8500 		addi	s5,a0,8
 556 0348 13850A00 		mv	a0,s5
 557              	.LVL49:
 558 034c 97000000 		call	_ZN5Mutex4waitEv@plt
 558      E7800000 
 559              	.LVL50:
  90:src/MemoryAllocator.cpp ****     while (curr && curr < elem)
 560              		.loc 1 90 5 is_stmt 1
  90:src/MemoryAllocator.cpp ****     while (curr && curr < elem)
 561              		.loc 1 90 18 is_stmt 0
 562 0354 83370A00 		ld	a5,0(s4)
 563              	.LVL51:
 564              	.L38:
  91:src/MemoryAllocator.cpp ****         prev = curr, curr = curr->next;
 565              		.loc 1 91 5 is_stmt 1
  91:src/MemoryAllocator.cpp ****         prev = curr, curr = curr->next;
 566              		.loc 1 91 17
 567 0358 638A0700 		beqz	a5,.L37
  91:src/MemoryAllocator.cpp ****         prev = curr, curr = curr->next;
 568              		.loc 1 91 17 is_stmt 0 discriminator 1
 569 035c 63F83701 		bgeu	a5,s3,.L37
  92:src/MemoryAllocator.cpp **** 
 570              		.loc 1 92 9 is_stmt 1
 571              	.LVL52:
  92:src/MemoryAllocator.cpp **** 
 572              		.loc 1 92 14 is_stmt 0
 573 0360 93840700 		mv	s1,a5
  92:src/MemoryAllocator.cpp **** 
 574              		.loc 1 92 27
 575 0364 83B70701 		ld	a5,16(a5)
 576              	.LVL53:
  91:src/MemoryAllocator.cpp ****         prev = curr, curr = curr->next;
 577              		.loc 1 91 5
 578 0368 6FF01FFF 		j	.L38
 579              	.L37:
  94:src/MemoryAllocator.cpp ****         || (curr && (uint8 *) addr + elem->size  > (uint8 *) curr)) {
 580              		.loc 1 94 5 is_stmt 1
 581 036c 638A0400 		beqz	s1,.L39
  94:src/MemoryAllocator.cpp ****         || (curr && (uint8 *) addr + elem->size  > (uint8 *) curr)) {
 582              		.loc 1 94 41 is_stmt 0 discriminator 1
 583 0370 03B70400 		ld	a4,0(s1)
  94:src/MemoryAllocator.cpp ****         || (curr && (uint8 *) addr + elem->size  > (uint8 *) curr)) {
 584              		.loc 1 94 46 discriminator 1
 585 0374 13078701 		addi	a4,a4,24
 586 0378 3387E400 		add	a4,s1,a4
  94:src/MemoryAllocator.cpp ****         || (curr && (uint8 *) addr + elem->size  > (uint8 *) curr)) {
 587              		.loc 1 94 15 discriminator 1
 588 037c 6366E90A 		bgtu	a4,s2,.L49
 589              	.L39:
  95:src/MemoryAllocator.cpp ****         return -2;
 590              		.loc 1 95 9
 591 0380 63880700 		beqz	a5,.L40
  95:src/MemoryAllocator.cpp ****         return -2;
 592              		.loc 1 95 44 discriminator 1
GAS LISTING /tmp/ccDyU3oD.s 			page 15


 593 0384 033789FE 		ld	a4,-24(s2)
  95:src/MemoryAllocator.cpp ****         return -2;
 594              		.loc 1 95 36 discriminator 1
 595 0388 3307E900 		add	a4,s2,a4
  95:src/MemoryAllocator.cpp ****         return -2;
 596              		.loc 1 95 18 discriminator 1
 597 038c 63E2E70A 		bgtu	a4,a5,.L50
 598              	.L40:
  99:src/MemoryAllocator.cpp ****     elem->free = true;
 599              		.loc 1 99 5 is_stmt 1
  99:src/MemoryAllocator.cpp ****     elem->free = true;
 600              		.loc 1 99 16 is_stmt 0
 601 0390 233CF9FE 		sd	a5,-8(s2)
 100:src/MemoryAllocator.cpp ****     (!prev ? freeMemHead : prev->next) = elem;
 602              		.loc 1 100 5 is_stmt 1
 100:src/MemoryAllocator.cpp ****     (!prev ? freeMemHead : prev->next) = elem;
 603              		.loc 1 100 16 is_stmt 0
 604 0394 93071000 		li	a5,1
 605              	.LVL54:
 606 0398 2308F9FE 		sb	a5,-16(s2)
 101:src/MemoryAllocator.cpp **** 
 607              		.loc 1 101 5 is_stmt 1
 101:src/MemoryAllocator.cpp **** 
 608              		.loc 1 101 40 is_stmt 0
 609 039c 638A0404 		beqz	s1,.L55
 101:src/MemoryAllocator.cpp **** 
 610              		.loc 1 101 40 discriminator 2
 611 03a0 23B83401 		sd	s3,16(s1)
 612              	.LVL55:
 613              	.L42:
 103:src/MemoryAllocator.cpp ****     tryToJoin(prev);
 614              		.loc 1 103 5 is_stmt 1
 103:src/MemoryAllocator.cpp ****     tryToJoin(prev);
 615              		.loc 1 103 14 is_stmt 0
 616 03a4 13850900 		mv	a0,s3
 617 03a8 97000000 		call	_ZN15MemoryAllocator9tryToJoinEPNS_11BlockHeaderE
 617      E7800000 
 618              	.LVL56:
 104:src/MemoryAllocator.cpp **** 
 619              		.loc 1 104 5 is_stmt 1
 104:src/MemoryAllocator.cpp **** 
 620              		.loc 1 104 14 is_stmt 0
 621 03b0 13850400 		mv	a0,s1
 622 03b4 97000000 		call	_ZN15MemoryAllocator9tryToJoinEPNS_11BlockHeaderE
 622      E7800000 
 623              	.LVL57:
 106:src/MemoryAllocator.cpp **** 
 624              		.loc 1 106 5 is_stmt 1
 106:src/MemoryAllocator.cpp **** 
 625              		.loc 1 106 17 is_stmt 0
 626 03bc 13850A00 		mv	a0,s5
 627 03c0 97000000 		call	_ZN5Mutex6signalEv@plt
 627      E7800000 
 628              	.LVL58:
 108:src/MemoryAllocator.cpp **** }
 629              		.loc 1 108 5 is_stmt 1
 108:src/MemoryAllocator.cpp **** }
GAS LISTING /tmp/ccDyU3oD.s 			page 16


 630              		.loc 1 108 12 is_stmt 0
 631 03c8 13050000 		li	a0,0
 632              	.LVL59:
 633              	.L36:
 109:src/MemoryAllocator.cpp **** 
 634              		.loc 1 109 1
 635 03cc 83308103 		ld	ra,56(sp)
 636              		.cfi_remember_state
 637              		.cfi_restore 1
 638 03d0 03340103 		ld	s0,48(sp)
 639              		.cfi_restore 8
 640              		.cfi_def_cfa 2, 64
 641 03d4 83348102 		ld	s1,40(sp)
 642              		.cfi_restore 9
 643 03d8 03390102 		ld	s2,32(sp)
 644              		.cfi_restore 18
 645              	.LVL60:
 646 03dc 83398101 		ld	s3,24(sp)
 647              		.cfi_restore 19
 648 03e0 033A0101 		ld	s4,16(sp)
 649              		.cfi_restore 20
 650              	.LVL61:
 651 03e4 833A8100 		ld	s5,8(sp)
 652              		.cfi_restore 21
 653 03e8 13010104 		addi	sp,sp,64
 654              		.cfi_def_cfa_offset 0
 655 03ec 67800000 		jr	ra
 656              	.LVL62:
 657              	.L55:
 658              		.cfi_restore_state
 101:src/MemoryAllocator.cpp **** 
 659              		.loc 1 101 40 discriminator 1
 660 03f0 23303A01 		sd	s3,0(s4)
 661              	.LVL63:
 662 03f4 6FF01FFB 		j	.L42
 663              	.LVL64:
 664              	.L43:
 665              		.cfi_def_cfa_register 2
 666              		.cfi_restore 1
 667              		.cfi_restore 8
 668              		.cfi_restore 9
 669              		.cfi_restore 18
 670              		.cfi_restore 19
 671              		.cfi_restore 20
 672              		.cfi_restore 21
  79:src/MemoryAllocator.cpp ****     }
 673              		.loc 1 79 17
 674 03f8 1305F0FF 		li	a0,-1
 675              	.LVL65:
 109:src/MemoryAllocator.cpp **** 
 676              		.loc 1 109 1
 677 03fc 67800000 		ret
 678              	.LVL66:
 679              	.L44:
 680              		.cfi_def_cfa_register 8
 681              		.cfi_offset 1, -8
 682              		.cfi_offset 8, -16
GAS LISTING /tmp/ccDyU3oD.s 			page 17


 683              		.cfi_offset 9, -24
 684              		.cfi_offset 18, -32
 685              		.cfi_offset 19, -40
 686              		.cfi_offset 20, -48
 687              		.cfi_offset 21, -56
  79:src/MemoryAllocator.cpp ****     }
 688              		.loc 1 79 17
 689 0400 1305F0FF 		li	a0,-1
 690              	.LVL67:
 691 0404 6FF09FFC 		j	.L36
 692              	.LVL68:
 693              	.L45:
 694 0408 1305F0FF 		li	a0,-1
 695              	.LVL69:
 696 040c 6FF01FFC 		j	.L36
 697              	.LVL70:
 698              	.L46:
  85:src/MemoryAllocator.cpp ****     }
 699              		.loc 1 85 17
 700 0410 1305E0FF 		li	a0,-2
 701              	.LVL71:
 702 0414 6FF09FFB 		j	.L36
 703              	.LVL72:
 704              	.L47:
 705 0418 1305E0FF 		li	a0,-2
 706              	.LVL73:
 707 041c 6FF01FFB 		j	.L36
 708              	.LVL74:
 709              	.L48:
 710 0420 1305E0FF 		li	a0,-2
 711              	.LVL75:
 712 0424 6FF09FFA 		j	.L36
 713              	.LVL76:
 714              	.L49:
  96:src/MemoryAllocator.cpp ****     }
 715              		.loc 1 96 17
 716 0428 1305E0FF 		li	a0,-2
 717 042c 6FF01FFA 		j	.L36
 718              	.L50:
 719 0430 1305E0FF 		li	a0,-2
 720 0434 6FF09FF9 		j	.L36
 721              		.cfi_endproc
 722              	.LFE34:
 724              		.align	2
 725              		.globl	_Z5kfreePv
 727              	_Z5kfreePv:
 728              	.LFB24:
   9:src/MemoryAllocator.cpp ****     return MemoryAllocator::getInstance()->free(addr);
 729              		.loc 1 9 23 is_stmt 1
 730              		.cfi_startproc
 731              	.LVL77:
 732 0438 130101FE 		addi	sp,sp,-32
 733              		.cfi_def_cfa_offset 32
 734 043c 233C1100 		sd	ra,24(sp)
 735 0440 23388100 		sd	s0,16(sp)
 736 0444 23349100 		sd	s1,8(sp)
 737              		.cfi_offset 1, -8
GAS LISTING /tmp/ccDyU3oD.s 			page 18


 738              		.cfi_offset 8, -16
 739              		.cfi_offset 9, -24
 740 0448 13040102 		addi	s0,sp,32
 741              		.cfi_def_cfa 8, 0
 742 044c 93040500 		mv	s1,a0
  10:src/MemoryAllocator.cpp **** }
 743              		.loc 1 10 5
  10:src/MemoryAllocator.cpp **** }
 744              		.loc 1 10 48 is_stmt 0
 745 0450 97000000 		call	_ZN15MemoryAllocator11getInstanceEv
 745      E7800000 
 746              	.LVL78:
 747 0458 93850400 		mv	a1,s1
 748 045c 97000000 		call	_ZN15MemoryAllocator4freeEPv
 748      E7800000 
 749              	.LVL79:
  11:src/MemoryAllocator.cpp **** 
 750              		.loc 1 11 1
 751 0464 83308101 		ld	ra,24(sp)
 752              		.cfi_restore 1
 753 0468 03340101 		ld	s0,16(sp)
 754              		.cfi_restore 8
 755              		.cfi_def_cfa 2, 32
 756 046c 83348100 		ld	s1,8(sp)
 757              		.cfi_restore 9
 758              	.LVL80:
 759 0470 13010102 		addi	sp,sp,32
 760              		.cfi_def_cfa_offset 0
 761 0474 67800000 		jr	ra
 762              		.cfi_endproc
 763              	.LFE24:
 765              		.globl	_ZN15MemoryAllocator8instanceE
 766              		.bss
 767              		.align	3
 768              		.set	.LANCHOR0,. + 0
 771              	_ZN15MemoryAllocator8instanceE:
 772 0000 00000000 		.zero	8
 772      00000000 
 773              		.text
 774              	.Letext0:
 775              		.file 5 "src/../h/../lib/hw.h"
 776              		.file 6 "src/../h/KernelObject.h"
 777              		.file 7 "src/../h/ThreadNode.h"
 778              		.file 8 "src/../h/MemoryAllocator.h"
GAS LISTING /tmp/ccDyU3oD.s 			page 19


DEFINED SYMBOLS
                            *ABS*:0000000000000000 MemoryAllocator.cpp
     /tmp/ccDyU3oD.s:9      .text:0000000000000000 _ZN15MemoryAllocatornwEm
     /tmp/ccDyU3oD.s:13     .text:0000000000000000 .L0 
     /tmp/ccDyU3oD.s:14     .text:0000000000000000 .L0 
     /tmp/ccDyU3oD.s:15     .text:0000000000000004 .L0 
     /tmp/ccDyU3oD.s:17     .text:0000000000000008 .L0 
     /tmp/ccDyU3oD.s:19     .text:000000000000000c .L0 
     /tmp/ccDyU3oD.s:21     .text:000000000000000c .L0 
     /tmp/ccDyU3oD.s:22     .text:000000000000000c .L0 
     /tmp/ccDyU3oD.s:25     .text:000000000000001c .L0 
     /tmp/ccDyU3oD.s:26     .text:000000000000001c .L0 
     /tmp/ccDyU3oD.s:28     .text:0000000000000020 .L0 
     /tmp/ccDyU3oD.s:30     .text:0000000000000024 .L0 
     /tmp/ccDyU3oD.s:36     .text:0000000000000024 _ZN15MemoryAllocatorC2Ev
     /tmp/ccDyU3oD.s:39     .text:0000000000000024 .L0 
     /tmp/ccDyU3oD.s:41     .text:0000000000000024 .L0 
     /tmp/ccDyU3oD.s:42     .text:0000000000000028 .L0 
     /tmp/ccDyU3oD.s:44     .text:000000000000002c .L0 
     /tmp/ccDyU3oD.s:46     .text:0000000000000030 .L0 
     /tmp/ccDyU3oD.s:55     .text:0000000000000030 .L0 
     /tmp/ccDyU3oD.s:62     .text:0000000000000038 .L0 
     /tmp/ccDyU3oD.s:73     .text:0000000000000048 .L0 
     /tmp/ccDyU3oD.s:81     .text:000000000000005c .L0 
     /tmp/ccDyU3oD.s:82     .text:000000000000005c .L0 
     /tmp/ccDyU3oD.s:86     .text:000000000000006c .L0 
     /tmp/ccDyU3oD.s:88     .text:0000000000000070 .L0 
     /tmp/ccDyU3oD.s:89     .text:0000000000000070 .L0 
     /tmp/ccDyU3oD.s:92     .text:000000000000007c .L0 
     /tmp/ccDyU3oD.s:94     .text:0000000000000080 .L0 
     /tmp/ccDyU3oD.s:96     .text:0000000000000084 .L0 
     /tmp/ccDyU3oD.s:98     .text:0000000000000088 .L0 
     /tmp/ccDyU3oD.s:100    .text:000000000000008c .L0 
     /tmp/ccDyU3oD.s:102    .text:0000000000000090 .L0 
     /tmp/ccDyU3oD.s:104    .text:0000000000000094 .L0 
     /tmp/ccDyU3oD.s:106    .text:0000000000000098 .L0 
     /tmp/ccDyU3oD.s:109    .text:000000000000009c .L0 
     /tmp/ccDyU3oD.s:110    .text:00000000000000a0 .L0 
     /tmp/ccDyU3oD.s:111    .text:00000000000000a0 .L0 
     /tmp/ccDyU3oD.s:113    .text:00000000000000a4 .L0 
     /tmp/ccDyU3oD.s:115    .text:00000000000000a8 .L0 
     /tmp/ccDyU3oD.s:36     .text:0000000000000024 _ZN15MemoryAllocatorC1Ev
     /tmp/ccDyU3oD.s:123    .text:00000000000000a8 _ZN15MemoryAllocator11getInstanceEv
     /tmp/ccDyU3oD.s:126    .text:00000000000000a8 .L0 
     /tmp/ccDyU3oD.s:127    .text:00000000000000a8 .L0 
     /tmp/ccDyU3oD.s:128    .text:00000000000000a8 .L0 
     /tmp/ccDyU3oD.s:129    .text:00000000000000a8 .L0 
     /tmp/ccDyU3oD.s:131    .text:00000000000000b0 .L0 
     /tmp/ccDyU3oD.s:133    .text:00000000000000b4 .L0 
     /tmp/ccDyU3oD.s:134    .text:00000000000000b4 .L0 
     /tmp/ccDyU3oD.s:138    .text:00000000000000c0 .L0 
     /tmp/ccDyU3oD.s:139    .text:00000000000000c4 .L0 
     /tmp/ccDyU3oD.s:143    .text:00000000000000d0 .L0 
     /tmp/ccDyU3oD.s:144    .text:00000000000000d0 .L0 
     /tmp/ccDyU3oD.s:145    .text:00000000000000d0 .L0 
     /tmp/ccDyU3oD.s:147    .text:00000000000000d4 .L0 
     /tmp/ccDyU3oD.s:149    .text:00000000000000d4 .L0 
GAS LISTING /tmp/ccDyU3oD.s 			page 20


     /tmp/ccDyU3oD.s:150    .text:00000000000000d4 .L0 
     /tmp/ccDyU3oD.s:157    .text:00000000000000ec .L0 
     /tmp/ccDyU3oD.s:159    .text:00000000000000f4 .L0 
     /tmp/ccDyU3oD.s:160    .text:00000000000000f4 .L0 
     /tmp/ccDyU3oD.s:162    .text:0000000000000100 .L0 
     /tmp/ccDyU3oD.s:164    .text:0000000000000104 .L0 
     /tmp/ccDyU3oD.s:165    .text:0000000000000104 .L0 
     /tmp/ccDyU3oD.s:167    .text:0000000000000108 .L0 
     /tmp/ccDyU3oD.s:169    .text:000000000000010c .L0 
     /tmp/ccDyU3oD.s:171    .text:0000000000000110 .L0 
     /tmp/ccDyU3oD.s:177    .text:0000000000000110 _ZN15MemoryAllocator6mallocEm
     /tmp/ccDyU3oD.s:180    .text:0000000000000110 .L0 
     /tmp/ccDyU3oD.s:182    .text:0000000000000110 .L0 
     /tmp/ccDyU3oD.s:183    .text:0000000000000114 .L0 
     /tmp/ccDyU3oD.s:190    .text:000000000000012c .L0 
     /tmp/ccDyU3oD.s:191    .text:000000000000012c .L0 
     /tmp/ccDyU3oD.s:192    .text:000000000000012c .L0 
     /tmp/ccDyU3oD.s:193    .text:000000000000012c .L0 
     /tmp/ccDyU3oD.s:194    .text:000000000000012c .L0 
     /tmp/ccDyU3oD.s:195    .text:000000000000012c .L0 
     /tmp/ccDyU3oD.s:197    .text:0000000000000130 .L0 
     /tmp/ccDyU3oD.s:199    .text:0000000000000130 .L0 
     /tmp/ccDyU3oD.s:202    .text:0000000000000138 .L0 
     /tmp/ccDyU3oD.s:203    .text:0000000000000138 .L0 
     /tmp/ccDyU3oD.s:206    .text:000000000000013c .L0 
     /tmp/ccDyU3oD.s:207    .text:000000000000013c .L0 
     /tmp/ccDyU3oD.s:213    .text:000000000000014c .L0 
     /tmp/ccDyU3oD.s:214    .text:000000000000014c .L0 
     /tmp/ccDyU3oD.s:217    .text:0000000000000150 .L0 
     /tmp/ccDyU3oD.s:218    .text:0000000000000150 .L0 
     /tmp/ccDyU3oD.s:222    .text:0000000000000154 .L0 
     /tmp/ccDyU3oD.s:223    .text:0000000000000154 .L0 
     /tmp/ccDyU3oD.s:225    .text:0000000000000158 .L0 
     /tmp/ccDyU3oD.s:227    .text:000000000000015c .L0 
     /tmp/ccDyU3oD.s:230    .text:0000000000000160 .L0 
     /tmp/ccDyU3oD.s:231    .text:0000000000000160 .L0 
     /tmp/ccDyU3oD.s:233    .text:0000000000000164 .L0 
     /tmp/ccDyU3oD.s:236    .text:0000000000000168 .L0 
     /tmp/ccDyU3oD.s:239    .text:000000000000016c .L0 
     /tmp/ccDyU3oD.s:241    .text:0000000000000170 .L0 
     /tmp/ccDyU3oD.s:242    .text:0000000000000170 .L0 
     /tmp/ccDyU3oD.s:244    .text:0000000000000174 .L0 
     /tmp/ccDyU3oD.s:247    .text:0000000000000178 .L0 
     /tmp/ccDyU3oD.s:248    .text:0000000000000178 .L0 
     /tmp/ccDyU3oD.s:250    .text:000000000000017c .L0 
     /tmp/ccDyU3oD.s:251    .text:000000000000017c .L0 
     /tmp/ccDyU3oD.s:254    .text:0000000000000180 .L0 
     /tmp/ccDyU3oD.s:258    .text:0000000000000188 .L0 
     /tmp/ccDyU3oD.s:259    .text:0000000000000188 .L0 
     /tmp/ccDyU3oD.s:262    .text:000000000000018c .L0 
     /tmp/ccDyU3oD.s:265    .text:0000000000000190 .L0 
     /tmp/ccDyU3oD.s:266    .text:0000000000000190 .L0 
     /tmp/ccDyU3oD.s:269    .text:0000000000000194 .L0 
     /tmp/ccDyU3oD.s:272    .text:0000000000000198 .L0 
     /tmp/ccDyU3oD.s:273    .text:0000000000000198 .L0 
     /tmp/ccDyU3oD.s:277    .text:00000000000001a0 .L0 
     /tmp/ccDyU3oD.s:278    .text:00000000000001a0 .L0 
GAS LISTING /tmp/ccDyU3oD.s 			page 21


     /tmp/ccDyU3oD.s:280    .text:00000000000001a4 .L0 
     /tmp/ccDyU3oD.s:282    .text:00000000000001a8 .L0 
     /tmp/ccDyU3oD.s:283    .text:00000000000001a8 .L0 
     /tmp/ccDyU3oD.s:285    .text:00000000000001ac .L0 
     /tmp/ccDyU3oD.s:293    .text:00000000000001b4 .L0 
     /tmp/ccDyU3oD.s:294    .text:00000000000001b4 .L0 
     /tmp/ccDyU3oD.s:298    .text:00000000000001c0 .L0 
     /tmp/ccDyU3oD.s:299    .text:00000000000001c0 .L0 
     /tmp/ccDyU3oD.s:305    .text:00000000000001c4 .L0 
     /tmp/ccDyU3oD.s:312    .text:00000000000001cc .L0 
     /tmp/ccDyU3oD.s:313    .text:00000000000001cc .L0 
     /tmp/ccDyU3oD.s:315    .text:00000000000001d0 .L0 
     /tmp/ccDyU3oD.s:317    .text:00000000000001d4 .L0 
     /tmp/ccDyU3oD.s:321    .text:00000000000001d8 .L0 
     /tmp/ccDyU3oD.s:322    .text:00000000000001d8 .L0 
     /tmp/ccDyU3oD.s:330    .text:00000000000001e4 .L0 
     /tmp/ccDyU3oD.s:331    .text:00000000000001e4 .L0 
     /tmp/ccDyU3oD.s:333    .text:00000000000001e8 .L0 
     /tmp/ccDyU3oD.s:334    .text:00000000000001e8 .L0 
     /tmp/ccDyU3oD.s:337    .text:00000000000001ec .L0 
     /tmp/ccDyU3oD.s:338    .text:00000000000001ec .L0 
     /tmp/ccDyU3oD.s:343    .text:00000000000001f8 .L0 
     /tmp/ccDyU3oD.s:344    .text:00000000000001f8 .L0 
     /tmp/ccDyU3oD.s:346    .text:0000000000000200 .L0 
     /tmp/ccDyU3oD.s:347    .text:0000000000000200 .L0 
     /tmp/ccDyU3oD.s:349    .text:0000000000000204 .L0 
     /tmp/ccDyU3oD.s:350    .text:0000000000000204 .L0 
     /tmp/ccDyU3oD.s:352    .text:0000000000000208 .L0 
     /tmp/ccDyU3oD.s:354    .text:000000000000020c .L0 
     /tmp/ccDyU3oD.s:356    .text:0000000000000210 .L0 
     /tmp/ccDyU3oD.s:358    .text:0000000000000214 .L0 
     /tmp/ccDyU3oD.s:360    .text:0000000000000218 .L0 
     /tmp/ccDyU3oD.s:364    .text:000000000000021c .L0 
     /tmp/ccDyU3oD.s:367    .text:000000000000021c .L0 
     /tmp/ccDyU3oD.s:370    .text:0000000000000220 .L0 
     /tmp/ccDyU3oD.s:376    .text:0000000000000228 .L0 
     /tmp/ccDyU3oD.s:378    .text:0000000000000230 .L0 
     /tmp/ccDyU3oD.s:384    .text:0000000000000230 _Z7kmallocm
     /tmp/ccDyU3oD.s:387    .text:0000000000000230 .L0 
     /tmp/ccDyU3oD.s:389    .text:0000000000000230 .L0 
     /tmp/ccDyU3oD.s:390    .text:0000000000000234 .L0 
     /tmp/ccDyU3oD.s:394    .text:0000000000000240 .L0 
     /tmp/ccDyU3oD.s:395    .text:0000000000000240 .L0 
     /tmp/ccDyU3oD.s:396    .text:0000000000000240 .L0 
     /tmp/ccDyU3oD.s:398    .text:0000000000000244 .L0 
     /tmp/ccDyU3oD.s:401    .text:0000000000000248 .L0 
     /tmp/ccDyU3oD.s:402    .text:0000000000000248 .L0 
     /tmp/ccDyU3oD.s:408    .text:000000000000025c .L0 
     /tmp/ccDyU3oD.s:409    .text:0000000000000260 .L0 
     /tmp/ccDyU3oD.s:411    .text:0000000000000264 .L0 
     /tmp/ccDyU3oD.s:412    .text:0000000000000264 .L0 
     /tmp/ccDyU3oD.s:414    .text:0000000000000268 .L0 
     /tmp/ccDyU3oD.s:417    .text:000000000000026c .L0 
     /tmp/ccDyU3oD.s:419    .text:0000000000000270 .L0 
     /tmp/ccDyU3oD.s:425    .text:0000000000000270 _ZN15MemoryAllocator9tryToJoinEPNS_11BlockHeaderE
     /tmp/ccDyU3oD.s:428    .text:0000000000000270 .L0 
     /tmp/ccDyU3oD.s:430    .text:0000000000000270 .L0 
GAS LISTING /tmp/ccDyU3oD.s 			page 22


     /tmp/ccDyU3oD.s:431    .text:0000000000000274 .L0 
     /tmp/ccDyU3oD.s:433    .text:0000000000000278 .L0 
     /tmp/ccDyU3oD.s:435    .text:000000000000027c .L0 
     /tmp/ccDyU3oD.s:437    .text:000000000000027c .L0 
     /tmp/ccDyU3oD.s:439    .text:0000000000000280 .L0 
     /tmp/ccDyU3oD.s:441    .text:0000000000000284 .L0 
     /tmp/ccDyU3oD.s:443    .text:0000000000000288 .L0 
     /tmp/ccDyU3oD.s:444    .text:0000000000000288 .L0 
     /tmp/ccDyU3oD.s:446    .text:000000000000028c .L0 
     /tmp/ccDyU3oD.s:449    .text:0000000000000294 .L0 
     /tmp/ccDyU3oD.s:451    .text:0000000000000298 .L0 
     /tmp/ccDyU3oD.s:452    .text:0000000000000298 .L0 
     /tmp/ccDyU3oD.s:454    .text:000000000000029c .L0 
     /tmp/ccDyU3oD.s:458    .text:00000000000002a8 .L0 
     /tmp/ccDyU3oD.s:459    .text:00000000000002a8 .L0 
     /tmp/ccDyU3oD.s:461    .text:00000000000002ac .L0 
     /tmp/ccDyU3oD.s:463    .text:00000000000002b0 .L0 
     /tmp/ccDyU3oD.s:464    .text:00000000000002b0 .L0 
     /tmp/ccDyU3oD.s:468    .text:00000000000002b4 .L0 
     /tmp/ccDyU3oD.s:469    .text:00000000000002b8 .L0 
     /tmp/ccDyU3oD.s:470    .text:00000000000002b8 .L0 
     /tmp/ccDyU3oD.s:471    .text:00000000000002b8 .L0 
     /tmp/ccDyU3oD.s:473    .text:00000000000002bc .L0 
     /tmp/ccDyU3oD.s:477    .text:00000000000002c0 .L0 
     /tmp/ccDyU3oD.s:479    .text:00000000000002c0 .L0 
     /tmp/ccDyU3oD.s:490    .text:00000000000002d0 .L0 
     /tmp/ccDyU3oD.s:493    .text:00000000000002d8 .L0 
     /tmp/ccDyU3oD.s:499    .text:00000000000002d8 _ZN15MemoryAllocator4freeEPv
     /tmp/ccDyU3oD.s:502    .text:00000000000002d8 .L0 
     /tmp/ccDyU3oD.s:504    .text:00000000000002d8 .L0 
     /tmp/ccDyU3oD.s:505    .text:00000000000002d8 .L0 
     /tmp/ccDyU3oD.s:507    .text:00000000000002dc .L0 
     /tmp/ccDyU3oD.s:508    .text:00000000000002e0 .L0 
     /tmp/ccDyU3oD.s:516    .text:00000000000002fc .L0 
     /tmp/ccDyU3oD.s:517    .text:00000000000002fc .L0 
     /tmp/ccDyU3oD.s:518    .text:00000000000002fc .L0 
     /tmp/ccDyU3oD.s:519    .text:00000000000002fc .L0 
     /tmp/ccDyU3oD.s:520    .text:00000000000002fc .L0 
     /tmp/ccDyU3oD.s:521    .text:00000000000002fc .L0 
     /tmp/ccDyU3oD.s:522    .text:00000000000002fc .L0 
     /tmp/ccDyU3oD.s:524    .text:0000000000000300 .L0 
     /tmp/ccDyU3oD.s:528    .text:0000000000000308 .L0 
     /tmp/ccDyU3oD.s:531    .text:0000000000000314 .L0 
     /tmp/ccDyU3oD.s:533    .text:0000000000000318 .L0 
     /tmp/ccDyU3oD.s:535    .text:000000000000031c .L0 
     /tmp/ccDyU3oD.s:538    .text:0000000000000328 .L0 
     /tmp/ccDyU3oD.s:540    .text:000000000000032c .L0 
     /tmp/ccDyU3oD.s:541    .text:000000000000032c .L0 
     /tmp/ccDyU3oD.s:544    .text:0000000000000330 .L0 
     /tmp/ccDyU3oD.s:546    .text:0000000000000334 .L0 
     /tmp/ccDyU3oD.s:548    .text:0000000000000338 .L0 
     /tmp/ccDyU3oD.s:550    .text:000000000000033c .L0 
     /tmp/ccDyU3oD.s:552    .text:0000000000000340 .L0 
     /tmp/ccDyU3oD.s:554    .text:0000000000000344 .L0 
     /tmp/ccDyU3oD.s:555    .text:0000000000000344 .L0 
     /tmp/ccDyU3oD.s:561    .text:0000000000000354 .L0 
     /tmp/ccDyU3oD.s:562    .text:0000000000000354 .L0 
GAS LISTING /tmp/ccDyU3oD.s 			page 23


     /tmp/ccDyU3oD.s:566    .text:0000000000000358 .L0 
     /tmp/ccDyU3oD.s:567    .text:0000000000000358 .L0 
     /tmp/ccDyU3oD.s:569    .text:000000000000035c .L0 
     /tmp/ccDyU3oD.s:572    .text:0000000000000360 .L0 
     /tmp/ccDyU3oD.s:573    .text:0000000000000360 .L0 
     /tmp/ccDyU3oD.s:575    .text:0000000000000364 .L0 
     /tmp/ccDyU3oD.s:578    .text:0000000000000368 .L0 
     /tmp/ccDyU3oD.s:581    .text:000000000000036c .L0 
     /tmp/ccDyU3oD.s:583    .text:0000000000000370 .L0 
     /tmp/ccDyU3oD.s:585    .text:0000000000000374 .L0 
     /tmp/ccDyU3oD.s:588    .text:000000000000037c .L0 
     /tmp/ccDyU3oD.s:591    .text:0000000000000380 .L0 
     /tmp/ccDyU3oD.s:593    .text:0000000000000384 .L0 
     /tmp/ccDyU3oD.s:595    .text:0000000000000388 .L0 
     /tmp/ccDyU3oD.s:597    .text:000000000000038c .L0 
     /tmp/ccDyU3oD.s:600    .text:0000000000000390 .L0 
     /tmp/ccDyU3oD.s:601    .text:0000000000000390 .L0 
     /tmp/ccDyU3oD.s:603    .text:0000000000000394 .L0 
     /tmp/ccDyU3oD.s:604    .text:0000000000000394 .L0 
     /tmp/ccDyU3oD.s:608    .text:000000000000039c .L0 
     /tmp/ccDyU3oD.s:609    .text:000000000000039c .L0 
     /tmp/ccDyU3oD.s:611    .text:00000000000003a0 .L0 
     /tmp/ccDyU3oD.s:615    .text:00000000000003a4 .L0 
     /tmp/ccDyU3oD.s:616    .text:00000000000003a4 .L0 
     /tmp/ccDyU3oD.s:620    .text:00000000000003b0 .L0 
     /tmp/ccDyU3oD.s:621    .text:00000000000003b0 .L0 
     /tmp/ccDyU3oD.s:625    .text:00000000000003bc .L0 
     /tmp/ccDyU3oD.s:626    .text:00000000000003bc .L0 
     /tmp/ccDyU3oD.s:630    .text:00000000000003c8 .L0 
     /tmp/ccDyU3oD.s:631    .text:00000000000003c8 .L0 
     /tmp/ccDyU3oD.s:635    .text:00000000000003cc .L0 
     /tmp/ccDyU3oD.s:636    .text:00000000000003d0 .L0 
     /tmp/ccDyU3oD.s:637    .text:00000000000003d0 .L0 
     /tmp/ccDyU3oD.s:639    .text:00000000000003d4 .L0 
     /tmp/ccDyU3oD.s:640    .text:00000000000003d4 .L0 
     /tmp/ccDyU3oD.s:642    .text:00000000000003d8 .L0 
     /tmp/ccDyU3oD.s:644    .text:00000000000003dc .L0 
     /tmp/ccDyU3oD.s:647    .text:00000000000003e0 .L0 
     /tmp/ccDyU3oD.s:649    .text:00000000000003e4 .L0 
     /tmp/ccDyU3oD.s:652    .text:00000000000003e8 .L0 
     /tmp/ccDyU3oD.s:654    .text:00000000000003ec .L0 
     /tmp/ccDyU3oD.s:658    .text:00000000000003f0 .L0 
     /tmp/ccDyU3oD.s:660    .text:00000000000003f0 .L0 
     /tmp/ccDyU3oD.s:665    .text:00000000000003f8 .L0 
     /tmp/ccDyU3oD.s:666    .text:00000000000003f8 .L0 
     /tmp/ccDyU3oD.s:667    .text:00000000000003f8 .L0 
     /tmp/ccDyU3oD.s:668    .text:00000000000003f8 .L0 
     /tmp/ccDyU3oD.s:669    .text:00000000000003f8 .L0 
     /tmp/ccDyU3oD.s:670    .text:00000000000003f8 .L0 
     /tmp/ccDyU3oD.s:671    .text:00000000000003f8 .L0 
     /tmp/ccDyU3oD.s:672    .text:00000000000003f8 .L0 
     /tmp/ccDyU3oD.s:674    .text:00000000000003f8 .L0 
     /tmp/ccDyU3oD.s:677    .text:00000000000003fc .L0 
     /tmp/ccDyU3oD.s:680    .text:0000000000000400 .L0 
     /tmp/ccDyU3oD.s:681    .text:0000000000000400 .L0 
     /tmp/ccDyU3oD.s:682    .text:0000000000000400 .L0 
     /tmp/ccDyU3oD.s:683    .text:0000000000000400 .L0 
GAS LISTING /tmp/ccDyU3oD.s 			page 24


     /tmp/ccDyU3oD.s:684    .text:0000000000000400 .L0 
     /tmp/ccDyU3oD.s:685    .text:0000000000000400 .L0 
     /tmp/ccDyU3oD.s:686    .text:0000000000000400 .L0 
     /tmp/ccDyU3oD.s:687    .text:0000000000000400 .L0 
     /tmp/ccDyU3oD.s:689    .text:0000000000000400 .L0 
     /tmp/ccDyU3oD.s:700    .text:0000000000000410 .L0 
     /tmp/ccDyU3oD.s:716    .text:0000000000000428 .L0 
     /tmp/ccDyU3oD.s:721    .text:0000000000000438 .L0 
     /tmp/ccDyU3oD.s:727    .text:0000000000000438 _Z5kfreePv
     /tmp/ccDyU3oD.s:730    .text:0000000000000438 .L0 
     /tmp/ccDyU3oD.s:732    .text:0000000000000438 .L0 
     /tmp/ccDyU3oD.s:733    .text:000000000000043c .L0 
     /tmp/ccDyU3oD.s:737    .text:0000000000000448 .L0 
     /tmp/ccDyU3oD.s:738    .text:0000000000000448 .L0 
     /tmp/ccDyU3oD.s:739    .text:0000000000000448 .L0 
     /tmp/ccDyU3oD.s:741    .text:000000000000044c .L0 
     /tmp/ccDyU3oD.s:744    .text:0000000000000450 .L0 
     /tmp/ccDyU3oD.s:745    .text:0000000000000450 .L0 
     /tmp/ccDyU3oD.s:751    .text:0000000000000464 .L0 
     /tmp/ccDyU3oD.s:752    .text:0000000000000468 .L0 
     /tmp/ccDyU3oD.s:754    .text:000000000000046c .L0 
     /tmp/ccDyU3oD.s:755    .text:000000000000046c .L0 
     /tmp/ccDyU3oD.s:757    .text:0000000000000470 .L0 
     /tmp/ccDyU3oD.s:760    .text:0000000000000474 .L0 
     /tmp/ccDyU3oD.s:762    .text:0000000000000478 .L0 
     /tmp/ccDyU3oD.s:771    .bss:0000000000000000 _ZN15MemoryAllocator8instanceE
     /tmp/ccDyU3oD.s:768    .bss:0000000000000000 .LANCHOR0
     /tmp/ccDyU3oD.s:779    .text:0000000000000478 .L0 
     /tmp/ccDyU3oD.s:22     .text:000000000000000c .L0 
     /tmp/ccDyU3oD.s:73     .text:0000000000000048 .L0 
     /tmp/ccDyU3oD.s:82     .text:000000000000005c .L0 
     /tmp/ccDyU3oD.s:89     .text:0000000000000070 .L0 
     /tmp/ccDyU3oD.s:129    .text:00000000000000a8 .L0 
     /tmp/ccDyU3oD.s:134    .text:00000000000000b4 .L0 
     /tmp/ccDyU3oD.s:157    .text:00000000000000ec .L0 
     /tmp/ccDyU3oD.s:160    .text:00000000000000f4 .L0 
     /tmp/ccDyU3oD.s:528    .text:0000000000000308 .L0 
     /tmp/ccDyU3oD.s:535    .text:000000000000031c .L0 
     /tmp/ccDyU3oD.s:136    .text:00000000000000c0 .L11
     /tmp/ccDyU3oD.s:373    .text:0000000000000228 .L22
     /tmp/ccDyU3oD.s:237    .text:000000000000016c .L14
     /tmp/ccDyU3oD.s:220    .text:0000000000000154 .L15
     /tmp/ccDyU3oD.s:289    .text:00000000000001b4 .L24
     /tmp/ccDyU3oD.s:309    .text:00000000000001cc .L17
     /tmp/ccDyU3oD.s:301    .text:00000000000001c4 .L25
     /tmp/ccDyU3oD.s:327    .text:00000000000001e4 .L19
     /tmp/ccDyU3oD.s:342    .text:00000000000001f8 .L12
     /tmp/ccDyU3oD.s:363    .text:000000000000021c .L26
     /tmp/ccDyU3oD.s:319    .text:00000000000001d8 .L21
     /tmp/ccDyU3oD.s:476    .text:00000000000002c0 .L31
     /tmp/ccDyU3oD.s:483    .text:00000000000002c8 .L32
     /tmp/ccDyU3oD.s:488    .text:00000000000002d0 .L33
     /tmp/ccDyU3oD.s:466    .text:00000000000002b4 .L30
     /tmp/ccDyU3oD.s:664    .text:00000000000003f8 .L43
     /tmp/ccDyU3oD.s:679    .text:0000000000000400 .L44
     /tmp/ccDyU3oD.s:693    .text:0000000000000408 .L45
     /tmp/ccDyU3oD.s:698    .text:0000000000000410 .L46
GAS LISTING /tmp/ccDyU3oD.s 			page 25


     /tmp/ccDyU3oD.s:704    .text:0000000000000418 .L47
     /tmp/ccDyU3oD.s:709    .text:0000000000000420 .L48
     /tmp/ccDyU3oD.s:579    .text:000000000000036c .L37
     /tmp/ccDyU3oD.s:564    .text:0000000000000358 .L38
     /tmp/ccDyU3oD.s:589    .text:0000000000000380 .L39
     /tmp/ccDyU3oD.s:714    .text:0000000000000428 .L49
     /tmp/ccDyU3oD.s:598    .text:0000000000000390 .L40
     /tmp/ccDyU3oD.s:718    .text:0000000000000430 .L50
     /tmp/ccDyU3oD.s:657    .text:00000000000003f0 .L55
     /tmp/ccDyU3oD.s:613    .text:00000000000003a4 .L42
     /tmp/ccDyU3oD.s:633    .text:00000000000003cc .L36
     /tmp/ccDyU3oD.s:2024   .debug_abbrev:0000000000000000 .Ldebug_abbrev0
     /tmp/ccDyU3oD.s:3602   .debug_str:000000000000026d .LASF108
     /tmp/ccDyU3oD.s:3754   .debug_str:000000000000080b .LASF109
     /tmp/ccDyU3oD.s:3642   .debug_str:00000000000003fd .LASF110
     /tmp/ccDyU3oD.s:5      .text:0000000000000000 .Ltext0
     /tmp/ccDyU3oD.s:774    .text:0000000000000478 .Letext0
     /tmp/ccDyU3oD.s:3530   .debug_line:0000000000000000 .Ldebug_line0
     /tmp/ccDyU3oD.s:3656   .debug_str:00000000000004d7 .LASF0
     /tmp/ccDyU3oD.s:3670   .debug_str:0000000000000534 .LASF1
     /tmp/ccDyU3oD.s:3644   .debug_str:000000000000045e .LASF2
     /tmp/ccDyU3oD.s:3596   .debug_str:0000000000000258 .LASF3
     /tmp/ccDyU3oD.s:3628   .debug_str:00000000000003b0 .LASF4
     /tmp/ccDyU3oD.s:3706   .debug_str:000000000000065b .LASF5
     /tmp/ccDyU3oD.s:3562   .debug_str:0000000000000136 .LASF6
     /tmp/ccDyU3oD.s:3674   .debug_str:0000000000000577 .LASF7
     /tmp/ccDyU3oD.s:3654   .debug_str:00000000000004c4 .LASF8
     /tmp/ccDyU3oD.s:3744   .debug_str:00000000000007b5 .LASF9
     /tmp/ccDyU3oD.s:3618   .debug_str:0000000000000368 .LASF10
     /tmp/ccDyU3oD.s:3684   .debug_str:00000000000005c0 .LASF11
     /tmp/ccDyU3oD.s:3736   .debug_str:0000000000000771 .LASF12
     /tmp/ccDyU3oD.s:3566   .debug_str:0000000000000144 .LASF13
     /tmp/ccDyU3oD.s:3540   .debug_str:0000000000000045 .LASF14
     /tmp/ccDyU3oD.s:3572   .debug_str:000000000000016e .LASF15
     /tmp/ccDyU3oD.s:3698   .debug_str:0000000000000625 .LASF16
     /tmp/ccDyU3oD.s:3582   .debug_str:00000000000001c6 .LASF17
     /tmp/ccDyU3oD.s:3680   .debug_str:000000000000059a .LASF22
     /tmp/ccDyU3oD.s:3748   .debug_str:00000000000007de .LASF18
     /tmp/ccDyU3oD.s:3652   .debug_str:00000000000004ae .LASF20
     /tmp/ccDyU3oD.s:3614   .debug_str:0000000000000350 .LASF19
     /tmp/ccDyU3oD.s:3554   .debug_str:00000000000000d7 .LASF21
     /tmp/ccDyU3oD.s:3714   .debug_str:00000000000006c8 .LASF76
     /tmp/ccDyU3oD.s:3558   .debug_str:00000000000000fb .LASF77
     /tmp/ccDyU3oD.s:3720   .debug_str:0000000000000706 .LASF81
     /tmp/ccDyU3oD.s:3592   .debug_str:0000000000000228 .LASF83
     /tmp/ccDyU3oD.s:3548   .debug_str:000000000000009c .LASF23
     /tmp/ccDyU3oD.s:3730   .debug_str:000000000000073f .LASF24
     /tmp/ccDyU3oD.s:3692   .debug_str:00000000000005f7 .LASF25
     /tmp/ccDyU3oD.s:3768   .debug_str:0000000000000887 .LASF26
     /tmp/ccDyU3oD.s:3752   .debug_str:0000000000000806 .LASF27
     /tmp/ccDyU3oD.s:3610   .debug_str:000000000000033d .LASF28
     /tmp/ccDyU3oD.s:3716   .debug_str:00000000000006d8 .LASF100
     /tmp/ccDyU3oD.s:3676   .debug_str:000000000000058a .LASF33
     /tmp/ccDyU3oD.s:3762   .debug_str:0000000000000848 .LASF35
     /tmp/ccDyU3oD.s:3636   .debug_str:00000000000003e6 .LASF29
     /tmp/ccDyU3oD.s:3546   .debug_str:0000000000000075 .LASF30
     /tmp/ccDyU3oD.s:3616   .debug_str:0000000000000360 .LASF31
GAS LISTING /tmp/ccDyU3oD.s 			page 26


     /tmp/ccDyU3oD.s:3538   .debug_str:000000000000001f .LASF32
     /tmp/ccDyU3oD.s:3734   .debug_str:0000000000000765 .LASF34
     /tmp/ccDyU3oD.s:3550   .debug_str:00000000000000a7 .LASF36
     /tmp/ccDyU3oD.s:3728   .debug_str:0000000000000736 .LASF37
     /tmp/ccDyU3oD.s:3750   .debug_str:00000000000007eb .LASF38
     /tmp/ccDyU3oD.s:3658   .debug_str:00000000000004e4 .LASF39
     /tmp/ccDyU3oD.s:3578   .debug_str:000000000000019a .LASF40
     /tmp/ccDyU3oD.s:3536   .debug_str:0000000000000017 .LASF41
     /tmp/ccDyU3oD.s:3576   .debug_str:0000000000000180 .LASF42
     /tmp/ccDyU3oD.s:3584   .debug_str:00000000000001dc .LASF43
     /tmp/ccDyU3oD.s:3646   .debug_str:000000000000046c .LASF44
     /tmp/ccDyU3oD.s:3758   .debug_str:0000000000000828 .LASF45
     /tmp/ccDyU3oD.s:3682   .debug_str:00000000000005a7 .LASF46
     /tmp/ccDyU3oD.s:3764   .debug_str:0000000000000864 .LASF47
     /tmp/ccDyU3oD.s:3660   .debug_str:00000000000004ef .LASF48
     /tmp/ccDyU3oD.s:3704   .debug_str:0000000000000654 .LASF49
     /tmp/ccDyU3oD.s:3760   .debug_str:000000000000082f .LASF50
     /tmp/ccDyU3oD.s:3732   .debug_str:000000000000075d .LASF51
     /tmp/ccDyU3oD.s:3620   .debug_str:0000000000000376 .LASF52
     /tmp/ccDyU3oD.s:3612   .debug_str:0000000000000348 .LASF53
     /tmp/ccDyU3oD.s:3604   .debug_str:0000000000000319 .LASF54
     /tmp/ccDyU3oD.s:3664   .debug_str:0000000000000516 .LASF55
     /tmp/ccDyU3oD.s:3718   .debug_str:00000000000006ec .LASF56
     /tmp/ccDyU3oD.s:3632   .debug_str:00000000000003c3 .LASF57
     /tmp/ccDyU3oD.s:3766   .debug_str:000000000000086b .LASF58
     /tmp/ccDyU3oD.s:3650   .debug_str:000000000000049e .LASF59
     /tmp/ccDyU3oD.s:3712   .debug_str:0000000000000699 .LASF60
     /tmp/ccDyU3oD.s:3552   .debug_str:00000000000000c6 .LASF61
     /tmp/ccDyU3oD.s:3672   .debug_str:0000000000000547 .LASF62
     /tmp/ccDyU3oD.s:3544   .debug_str:0000000000000069 .LASF63
     /tmp/ccDyU3oD.s:3542   .debug_str:0000000000000055 .LASF64
     /tmp/ccDyU3oD.s:3586   .debug_str:00000000000001e3 .LASF65
     /tmp/ccDyU3oD.s:3638   .debug_str:00000000000003ef .LASF66
     /tmp/ccDyU3oD.s:3686   .debug_str:00000000000005cf .LASF67
     /tmp/ccDyU3oD.s:3724   .debug_str:0000000000000720 .LASF68
     /tmp/ccDyU3oD.s:3608   .debug_str:0000000000000338 .LASF69
     /tmp/ccDyU3oD.s:3666   .debug_str:000000000000051e .LASF70
     /tmp/ccDyU3oD.s:3568   .debug_str:0000000000000154 .LASF111
     /tmp/ccDyU3oD.s:3756   .debug_str:0000000000000823 .LASF71
     /tmp/ccDyU3oD.s:3630   .debug_str:00000000000003b7 .LASF112
     /tmp/ccDyU3oD.s:3560   .debug_str:0000000000000112 .LASF113
     /tmp/ccDyU3oD.s:3564   .debug_str:000000000000013d .LASF72
     /tmp/ccDyU3oD.s:3688   .debug_str:00000000000005d4 .LASF73
     /tmp/ccDyU3oD.s:3694   .debug_str:00000000000005fc .LASF74
     /tmp/ccDyU3oD.s:3634   .debug_str:00000000000003cd .LASF75
     /tmp/ccDyU3oD.s:3594   .debug_str:000000000000023f .LASF78
     /tmp/ccDyU3oD.s:3532   .debug_str:0000000000000000 .LASF79
     /tmp/ccDyU3oD.s:3668   .debug_str:000000000000052e .LASF80
     /tmp/ccDyU3oD.s:3640   .debug_str:00000000000003f4 .LASF114
     /tmp/ccDyU3oD.s:3600   .debug_str:0000000000000263 .LASF82
     /tmp/ccDyU3oD.s:3590   .debug_str:00000000000001f6 .LASF84
     /tmp/ccDyU3oD.s:3622   .debug_str:0000000000000390 .LASF86
     /tmp/ccDyU3oD.s:3722   .debug_str:0000000000000719 .LASF85
     /tmp/ccDyU3oD.s:3570   .debug_str:0000000000000160 .LASF115
     /tmp/ccDyU3oD.s:3740   .debug_str:0000000000000788 .LASF116
     /tmp/ccDyU3oD.s:3726   .debug_str:0000000000000725 .LASF87
     /tmp/ccDyU3oD.s:3606   .debug_str:0000000000000333 .LASF89
GAS LISTING /tmp/ccDyU3oD.s 			page 27


     /tmp/ccDyU3oD.s:3710   .debug_str:0000000000000686 .LASF88
     /tmp/ccDyU3oD.s:3678   .debug_str:0000000000000593 .LASF90
     /tmp/ccDyU3oD.s:3742   .debug_str:0000000000000796 .LASF117
     /tmp/ccDyU3oD.s:3690   .debug_str:00000000000005f2 .LASF91
     /tmp/ccDyU3oD.s:3626   .debug_str:00000000000003a6 .LASF92
     /tmp/ccDyU3oD.s:3662   .debug_str:0000000000000508 .LASF93
     /tmp/ccDyU3oD.s:3588   .debug_str:00000000000001e8 .LASF94
     /tmp/ccDyU3oD.s:426    .text:0000000000000270 .LFB35
     /tmp/ccDyU3oD.s:494    .text:00000000000002d8 .LFE35
     /tmp/ccDyU3oD.s:3016   .debug_loc:0000000000000000 .LLST13
     /tmp/ccDyU3oD.s:500    .text:00000000000002d8 .LFB34
     /tmp/ccDyU3oD.s:722    .text:0000000000000438 .LFE34
     /tmp/ccDyU3oD.s:3063   .debug_loc:00000000000000b4 .LLST14
     /tmp/ccDyU3oD.s:3598   .debug_str:000000000000025e .LASF95
     /tmp/ccDyU3oD.s:3136   .debug_loc:00000000000001fa .LLST15
     /tmp/ccDyU3oD.s:3702   .debug_str:000000000000064f .LASF96
     /tmp/ccDyU3oD.s:3166   .debug_loc:000000000000027f .LLST16
     /tmp/ccDyU3oD.s:3181   .debug_loc:00000000000002c8 .LLST17
     /tmp/ccDyU3oD.s:3211   .debug_loc:000000000000034d .LLST18
     /tmp/ccDyU3oD.s:559    .text:0000000000000354 .LVL50
     /tmp/ccDyU3oD.s:618    .text:00000000000003b0 .LVL56
     /tmp/ccDyU3oD.s:623    .text:00000000000003bc .LVL57
     /tmp/ccDyU3oD.s:628    .text:00000000000003c8 .LVL58
     /tmp/ccDyU3oD.s:178    .text:0000000000000110 .LFB33
     /tmp/ccDyU3oD.s:379    .text:0000000000000230 .LFE33
     /tmp/ccDyU3oD.s:3234   .debug_loc:00000000000003bc .LLST4
     /tmp/ccDyU3oD.s:3260   .debug_loc:000000000000042e .LLST5
     /tmp/ccDyU3oD.s:3319   .debug_loc:000000000000050c .LLST6
     /tmp/ccDyU3oD.s:3345   .debug_loc:000000000000057e .LLST7
     /tmp/ccDyU3oD.s:3373   .debug_loc:0000000000000601 .LLST8
     /tmp/ccDyU3oD.s:3580   .debug_str:00000000000001b8 .LASF97
     /tmp/ccDyU3oD.s:3381   .debug_loc:0000000000000625 .LLST9
     /tmp/ccDyU3oD.s:3420   .debug_loc:00000000000006b3 .LLST10
     /tmp/ccDyU3oD.s:3522   .debug_ranges:0000000000000000 .Ldebug_ranges0
     /tmp/ccDyU3oD.s:3427   .debug_loc:00000000000006d6 .LLST11
     /tmp/ccDyU3oD.s:211    .text:000000000000014c .LVL10
     /tmp/ccDyU3oD.s:296    .text:00000000000001c0 .LVL23
     /tmp/ccDyU3oD.s:340    .text:00000000000001f8 .LVL31
     /tmp/ccDyU3oD.s:124    .text:00000000000000a8 .LFB32
     /tmp/ccDyU3oD.s:172    .text:0000000000000110 .LFE32
     /tmp/ccDyU3oD.s:152    .text:00000000000000e0 .LVL5
     /tmp/ccDyU3oD.s:155    .text:00000000000000ec .LVL6
     /tmp/ccDyU3oD.s:3746   .debug_str:00000000000007c5 .LASF118
     /tmp/ccDyU3oD.s:37     .text:0000000000000024 .LFB30
     /tmp/ccDyU3oD.s:116    .text:00000000000000a8 .LFE30
     /tmp/ccDyU3oD.s:49     .text:0000000000000030 .LBB22
     /tmp/ccDyU3oD.s:79     .text:000000000000005c .LBE22
     /tmp/ccDyU3oD.s:3438   .debug_loc:000000000000070c .LLST0
     /tmp/ccDyU3oD.s:51     .text:0000000000000030 .LBB24
     /tmp/ccDyU3oD.s:70     .text:0000000000000048 .LBE24
     /tmp/ccDyU3oD.s:3447   .debug_loc:0000000000000731 .LLST1
     /tmp/ccDyU3oD.s:3455   .debug_loc:0000000000000755 .LLST2
     /tmp/ccDyU3oD.s:58     .text:0000000000000038 .LBB26
     /tmp/ccDyU3oD.s:68     .text:0000000000000048 .LBE26
     /tmp/ccDyU3oD.s:3464   .debug_loc:000000000000077a .LLST3
     /tmp/ccDyU3oD.s:3556   .debug_str:00000000000000ed .LASF98
     /tmp/ccDyU3oD.s:10     .text:0000000000000000 .LFB25
GAS LISTING /tmp/ccDyU3oD.s 			page 28


     /tmp/ccDyU3oD.s:31     .text:0000000000000024 .LFE25
     /tmp/ccDyU3oD.s:3574   .debug_str:000000000000017a .LASF99
     /tmp/ccDyU3oD.s:3534   .debug_str:000000000000000c .LASF101
     /tmp/ccDyU3oD.s:728    .text:0000000000000438 .LFB24
     /tmp/ccDyU3oD.s:763    .text:0000000000000478 .LFE24
     /tmp/ccDyU3oD.s:3473   .debug_loc:000000000000079f .LLST19
     /tmp/ccDyU3oD.s:746    .text:0000000000000458 .LVL78
     /tmp/ccDyU3oD.s:749    .text:0000000000000464 .LVL79
     /tmp/ccDyU3oD.s:3738   .debug_str:0000000000000780 .LASF102
     /tmp/ccDyU3oD.s:3696   .debug_str:0000000000000619 .LASF103
     /tmp/ccDyU3oD.s:385    .text:0000000000000230 .LFB23
     /tmp/ccDyU3oD.s:420    .text:0000000000000270 .LFE23
     /tmp/ccDyU3oD.s:3491   .debug_loc:00000000000007eb .LLST12
     /tmp/ccDyU3oD.s:403    .text:0000000000000250 .LVL36
     /tmp/ccDyU3oD.s:406    .text:000000000000025c .LVL37
     /tmp/ccDyU3oD.s:3624   .debug_str:0000000000000396 .LASF104
     /tmp/ccDyU3oD.s:3648   .debug_str:0000000000000485 .LASF105
     /tmp/ccDyU3oD.s:3708   .debug_str:000000000000066d .LASF106
     /tmp/ccDyU3oD.s:3700   .debug_str:000000000000063b .LASF107
     /tmp/ccDyU3oD.s:429    .text:0000000000000270 .LVL39
     /tmp/ccDyU3oD.s:465    .text:00000000000002b4 .LVL40
     /tmp/ccDyU3oD.s:475    .text:00000000000002c0 .LVL41
     /tmp/ccDyU3oD.s:480    .text:00000000000002c4 .LVL42
     /tmp/ccDyU3oD.s:482    .text:00000000000002c8 .LVL43
     /tmp/ccDyU3oD.s:485    .text:00000000000002cc .LVL44
     /tmp/ccDyU3oD.s:487    .text:00000000000002d0 .LVL45
     /tmp/ccDyU3oD.s:491    .text:00000000000002d4 .LVL46
     /tmp/ccDyU3oD.s:503    .text:00000000000002d8 .LVL47
     /tmp/ccDyU3oD.s:557    .text:000000000000034c .LVL49
     /tmp/ccDyU3oD.s:650    .text:00000000000003e4 .LVL61
     /tmp/ccDyU3oD.s:656    .text:00000000000003f0 .LVL62
     /tmp/ccDyU3oD.s:663    .text:00000000000003f8 .LVL64
     /tmp/ccDyU3oD.s:675    .text:00000000000003fc .LVL65
     /tmp/ccDyU3oD.s:678    .text:0000000000000400 .LVL66
     /tmp/ccDyU3oD.s:690    .text:0000000000000404 .LVL67
     /tmp/ccDyU3oD.s:692    .text:0000000000000408 .LVL68
     /tmp/ccDyU3oD.s:695    .text:000000000000040c .LVL69
     /tmp/ccDyU3oD.s:697    .text:0000000000000410 .LVL70
     /tmp/ccDyU3oD.s:701    .text:0000000000000414 .LVL71
     /tmp/ccDyU3oD.s:703    .text:0000000000000418 .LVL72
     /tmp/ccDyU3oD.s:706    .text:000000000000041c .LVL73
     /tmp/ccDyU3oD.s:708    .text:0000000000000420 .LVL74
     /tmp/ccDyU3oD.s:711    .text:0000000000000424 .LVL75
     /tmp/ccDyU3oD.s:645    .text:00000000000003dc .LVL60
     /tmp/ccDyU3oD.s:713    .text:0000000000000428 .LVL76
     /tmp/ccDyU3oD.s:542    .text:0000000000000330 .LVL48
     /tmp/ccDyU3oD.s:632    .text:00000000000003cc .LVL59
     /tmp/ccDyU3oD.s:563    .text:0000000000000358 .LVL51
     /tmp/ccDyU3oD.s:571    .text:0000000000000360 .LVL52
     /tmp/ccDyU3oD.s:576    .text:0000000000000368 .LVL53
     /tmp/ccDyU3oD.s:605    .text:0000000000000398 .LVL54
     /tmp/ccDyU3oD.s:612    .text:00000000000003a4 .LVL55
     /tmp/ccDyU3oD.s:661    .text:00000000000003f4 .LVL63
     /tmp/ccDyU3oD.s:181    .text:0000000000000110 .LVL7
     /tmp/ccDyU3oD.s:209    .text:0000000000000144 .LVL9
     /tmp/ccDyU3oD.s:362    .text:000000000000021c .LVL32
     /tmp/ccDyU3oD.s:372    .text:0000000000000228 .LVL34
GAS LISTING /tmp/ccDyU3oD.s 			page 29


     /tmp/ccDyU3oD.s:204    .text:000000000000013c .LVL8
     /tmp/ccDyU3oD.s:260    .text:000000000000018c .LVL16
     /tmp/ccDyU3oD.s:270    .text:0000000000000198 .LVL19
     /tmp/ccDyU3oD.s:288    .text:00000000000001b4 .LVL22
     /tmp/ccDyU3oD.s:300    .text:00000000000001c4 .LVL24
     /tmp/ccDyU3oD.s:308    .text:00000000000001cc .LVL26
     /tmp/ccDyU3oD.s:326    .text:00000000000001e4 .LVL29
     /tmp/ccDyU3oD.s:215    .text:0000000000000150 .LVL11
     /tmp/ccDyU3oD.s:229    .text:0000000000000160 .LVL13
     /tmp/ccDyU3oD.s:234    .text:0000000000000168 .LVL14
     /tmp/ccDyU3oD.s:335    .text:00000000000001ec .LVL30
     /tmp/ccDyU3oD.s:219    .text:0000000000000154 .LVL12
     /tmp/ccDyU3oD.s:318    .text:00000000000001d8 .LVL27
     /tmp/ccDyU3oD.s:368    .text:0000000000000220 .LVL33
     /tmp/ccDyU3oD.s:245    .text:0000000000000178 .LVL15
     /tmp/ccDyU3oD.s:267    .text:0000000000000194 .LVL18
     /tmp/ccDyU3oD.s:274    .text:000000000000019c .LVL20
     /tmp/ccDyU3oD.s:286    .text:00000000000001b0 .LVL21
     /tmp/ccDyU3oD.s:306    .text:00000000000001c8 .LVL25
     /tmp/ccDyU3oD.s:324    .text:00000000000001e0 .LVL28
     /tmp/ccDyU3oD.s:263    .text:0000000000000190 .LVL17
     /tmp/ccDyU3oD.s:47     .text:0000000000000030 .LVL1
     /tmp/ccDyU3oD.s:77     .text:000000000000005c .LVL4
     /tmp/ccDyU3oD.s:66     .text:0000000000000048 .LVL3
     /tmp/ccDyU3oD.s:57     .text:0000000000000038 .LVL2
     /tmp/ccDyU3oD.s:731    .text:0000000000000438 .LVL77
     /tmp/ccDyU3oD.s:758    .text:0000000000000470 .LVL80
     /tmp/ccDyU3oD.s:388    .text:0000000000000230 .LVL35
     /tmp/ccDyU3oD.s:415    .text:0000000000000268 .LVL38
     /tmp/ccDyU3oD.s:780    .debug_info:0000000000000000 .Ldebug_info0
     /tmp/ccDyU3oD.s:256    .text:0000000000000188 .LBB29
     /tmp/ccDyU3oD.s:290    .text:00000000000001b4 .LBE29
     /tmp/ccDyU3oD.s:303    .text:00000000000001c4 .LBB30
     /tmp/ccDyU3oD.s:310    .text:00000000000001cc .LBE30

UNDEFINED SYMBOLS
HEAP_START_ADDR
_ZTV5Mutex
HEAP_END_ADDR
_ZN5Mutex4waitEv
_ZN5Mutex6signalEv
