GAS LISTING /tmp/ccdzbt4h.s 			page 1


   1              		.file	"MemoryAllocator.cpp"
   2              		.option pic
   3              		.option norelax
   4              		.text
   5              	.Ltext0:
   6              		.align	2
   7              		.globl	_ZN15MemoryAllocator19initMemoryAllocatorEv
   9              	_ZN15MemoryAllocator19initMemoryAllocatorEv:
  10              	.LFB0:
  11              		.file 1 "src/MemoryAllocator.cpp"
   1:src/MemoryAllocator.cpp **** #include "../h/MemoryAllocator.h"
   2:src/MemoryAllocator.cpp **** 
   3:src/MemoryAllocator.cpp **** MemoryAllocator *MemoryAllocator::instance = nullptr;
   4:src/MemoryAllocator.cpp **** 
   5:src/MemoryAllocator.cpp **** void MemoryAllocator::initMemoryAllocator() {
  12              		.loc 1 5 45
  13              		.cfi_startproc
  14 0000 130101FF 		addi	sp,sp,-16
  15              		.cfi_def_cfa_offset 16
  16 0004 23348100 		sd	s0,8(sp)
  17              		.cfi_offset 8, -8
  18 0008 13040101 		addi	s0,sp,16
  19              		.cfi_def_cfa 8, 0
   6:src/MemoryAllocator.cpp ****     instance = (MemoryAllocator *) HEAP_START_ADDR;
  20              		.loc 1 6 5
  21              		.loc 1 6 14 is_stmt 0
  22 000c 97060000 		la	a3,HEAP_START_ADDR
  22      83B60600 
  23 0014 03B70600 		ld	a4,0(a3)
  24 0018 17060000 		lla	a2,.LANCHOR0
  24      13060600 
  25 0020 2330E600 		sd	a4,0(a2)
   7:src/MemoryAllocator.cpp **** 
   8:src/MemoryAllocator.cpp ****     instance->freeMemSize = (uint8 *) HEAP_END_ADDR - (uint8 *) HEAP_START_ADDR - MEM_BLOCK_SIZE;
  26              		.loc 1 8 5 is_stmt 1
  27              		.loc 1 8 29 is_stmt 0
  28 0024 97070000 		la	a5,HEAP_END_ADDR
  28      83B70700 
  29 002c 83B70700 		ld	a5,0(a5)
  30              		.loc 1 8 53
  31 0030 B387E740 		sub	a5,a5,a4
  32              		.loc 1 8 81
  33 0034 938707FC 		addi	a5,a5,-64
  34              		.loc 1 8 27
  35 0038 2330F700 		sd	a5,0(a4)
   9:src/MemoryAllocator.cpp **** 
  10:src/MemoryAllocator.cpp ****     instance->segDescHead = (FreeSegDesc *) ((uint8 *) HEAP_START_ADDR + MEM_BLOCK_SIZE);
  36              		.loc 1 10 5 is_stmt 1
  37              		.loc 1 10 15 is_stmt 0
  38 003c 83370600 		ld	a5,0(a2)
  39              		.loc 1 10 29
  40 0040 03B70600 		ld	a4,0(a3)
  41 0044 93060704 		addi	a3,a4,64
  42              		.loc 1 10 27
  43 0048 23B4D700 		sd	a3,8(a5)
  11:src/MemoryAllocator.cpp ****     instance->segDescHead->size = instance->freeMemSize;
  44              		.loc 1 11 5 is_stmt 1
GAS LISTING /tmp/ccdzbt4h.s 			page 2


  45              		.loc 1 11 45 is_stmt 0
  46 004c 83B60700 		ld	a3,0(a5)
  47              		.loc 1 11 33
  48 0050 2330D704 		sd	a3,64(a4)
  12:src/MemoryAllocator.cpp ****     instance->segDescHead->next = nullptr;
  49              		.loc 1 12 5 is_stmt 1
  50              		.loc 1 12 15 is_stmt 0
  51 0054 83B78700 		ld	a5,8(a5)
  52              		.loc 1 12 33
  53 0058 23B40700 		sd	zero,8(a5)
  13:src/MemoryAllocator.cpp **** }
  54              		.loc 1 13 1
  55 005c 03348100 		ld	s0,8(sp)
  56              		.cfi_restore 8
  57              		.cfi_def_cfa 2, 16
  58 0060 13010101 		addi	sp,sp,16
  59              		.cfi_def_cfa_offset 0
  60 0064 67800000 		jr	ra
  61              		.cfi_endproc
  62              	.LFE0:
  64              		.align	2
  65              		.globl	_ZN15MemoryAllocator11getInstanceEv
  67              	_ZN15MemoryAllocator11getInstanceEv:
  68              	.LFB1:
  14:src/MemoryAllocator.cpp **** 
  15:src/MemoryAllocator.cpp **** MemoryAllocator *MemoryAllocator::getInstance() {
  69              		.loc 1 15 49 is_stmt 1
  70              		.cfi_startproc
  16:src/MemoryAllocator.cpp ****     if (!instance) initMemoryAllocator();
  71              		.loc 1 16 5
  72              		.loc 1 16 9 is_stmt 0
  73 0068 97070000 		ld	a5,.LANCHOR0
  73      83B70700 
  74              		.loc 1 16 5
  75 0070 63880700 		beqz	a5,.L9
  17:src/MemoryAllocator.cpp **** 
  18:src/MemoryAllocator.cpp ****     return instance;
  76              		.loc 1 18 5 is_stmt 1
  19:src/MemoryAllocator.cpp **** }
  77              		.loc 1 19 1 is_stmt 0
  78 0074 17050000 		ld	a0,.LANCHOR0
  78      03350500 
  79 007c 67800000 		ret
  80              	.L9:
  15:src/MemoryAllocator.cpp ****     if (!instance) initMemoryAllocator();
  81              		.loc 1 15 49 discriminator 1
  82 0080 130101FF 		addi	sp,sp,-16
  83              		.cfi_def_cfa_offset 16
  84 0084 23341100 		sd	ra,8(sp)
  85 0088 23308100 		sd	s0,0(sp)
  86              		.cfi_offset 1, -8
  87              		.cfi_offset 8, -16
  88 008c 13040101 		addi	s0,sp,16
  89              		.cfi_def_cfa 8, 0
  16:src/MemoryAllocator.cpp **** 
  90              		.loc 1 16 20 is_stmt 1 discriminator 1
  16:src/MemoryAllocator.cpp **** 
GAS LISTING /tmp/ccdzbt4h.s 			page 3


  91              		.loc 1 16 39 is_stmt 0 discriminator 1
  92 0090 97000000 		call	_ZN15MemoryAllocator19initMemoryAllocatorEv
  92      E7800000 
  93              	.LVL0:
  18:src/MemoryAllocator.cpp **** }
  94              		.loc 1 18 5 is_stmt 1 discriminator 1
  95              		.loc 1 19 1 is_stmt 0 discriminator 1
  96 0098 17050000 		ld	a0,.LANCHOR0
  96      03350500 
  97 00a0 83308100 		ld	ra,8(sp)
  98              		.cfi_restore 1
  99 00a4 03340100 		ld	s0,0(sp)
 100              		.cfi_restore 8
 101              		.cfi_def_cfa 2, 16
 102 00a8 13010101 		addi	sp,sp,16
 103              		.cfi_def_cfa_offset 0
 104 00ac 67800000 		jr	ra
 105              		.cfi_endproc
 106              	.LFE1:
 108              		.align	2
 109              		.globl	_ZN15MemoryAllocator6mallocEm
 111              	_ZN15MemoryAllocator6mallocEm:
 112              	.LFB2:
  20:src/MemoryAllocator.cpp **** 
  21:src/MemoryAllocator.cpp **** void *MemoryAllocator::malloc(size_t size) {
 113              		.loc 1 21 44 is_stmt 1
 114              		.cfi_startproc
 115              	.LVL1:
 116 00b0 130101FF 		addi	sp,sp,-16
 117              		.cfi_def_cfa_offset 16
 118 00b4 23348100 		sd	s0,8(sp)
 119              		.cfi_offset 8, -8
 120 00b8 13040101 		addi	s0,sp,16
 121              		.cfi_def_cfa 8, 0
  22:src/MemoryAllocator.cpp ****     if (size <= 0 || size + MEM_BLOCK_SIZE > freeMemSize) return nullptr;
 122              		.loc 1 22 5
 123 00bc 638E0508 		beqz	a1,.L18
 124 00c0 93060500 		mv	a3,a0
 125              		.loc 1 22 27 is_stmt 0 discriminator 2
 126 00c4 93850504 		addi	a1,a1,64
 127              	.LVL2:
 128              		.loc 1 22 46 discriminator 2
 129 00c8 03360500 		ld	a2,0(a0)
 130              		.loc 1 22 19 discriminator 2
 131 00cc 636AB608 		bgtu	a1,a2,.L19
  23:src/MemoryAllocator.cpp ****     size += MEM_BLOCK_SIZE;
 132              		.loc 1 23 5 is_stmt 1
 133              	.LVL3:
  24:src/MemoryAllocator.cpp **** 
  25:src/MemoryAllocator.cpp ****     FreeSegDesc *curr = segDescHead, *prev = nullptr;
 134              		.loc 1 25 5
 135              		.loc 1 25 18 is_stmt 0
 136 00d0 03358500 		ld	a0,8(a0)
 137              	.LVL4:
 138              		.loc 1 25 39
 139 00d4 13070000 		li	a4,0
 140              	.LVL5:
GAS LISTING /tmp/ccdzbt4h.s 			page 4


 141              	.L13:
  26:src/MemoryAllocator.cpp ****     while (curr) {
 142              		.loc 1 26 5 is_stmt 1
 143              		.loc 1 26 12
 144 00d8 630C0500 		beqz	a0,.L12
  27:src/MemoryAllocator.cpp ****         if (size <= curr->size) break;
 145              		.loc 1 27 9
 146              		.loc 1 27 27 is_stmt 0
 147 00dc 83370500 		ld	a5,0(a0)
 148              		.loc 1 27 9
 149 00e0 63F8B700 		bleu	a1,a5,.L12
  28:src/MemoryAllocator.cpp ****         prev = curr;
 150              		.loc 1 28 9 is_stmt 1
 151              	.LVL6:
  29:src/MemoryAllocator.cpp ****         curr = curr->next;
 152              		.loc 1 29 9
  28:src/MemoryAllocator.cpp ****         prev = curr;
 153              		.loc 1 28 14 is_stmt 0
 154 00e4 13070500 		mv	a4,a0
 155              		.loc 1 29 14
 156 00e8 03358500 		ld	a0,8(a0)
 157              	.LVL7:
  26:src/MemoryAllocator.cpp ****         if (size <= curr->size) break;
 158              		.loc 1 26 5
 159 00ec 6FF0DFFE 		j	.L13
 160              	.L12:
  30:src/MemoryAllocator.cpp ****     }
  31:src/MemoryAllocator.cpp ****     if (!curr) return nullptr;
 161              		.loc 1 31 5 is_stmt 1
 162 00f0 63040504 		beqz	a0,.L10
  32:src/MemoryAllocator.cpp **** 
  33:src/MemoryAllocator.cpp ****     freeMemSize -= size;
 163              		.loc 1 33 5
 164              		.loc 1 33 17 is_stmt 0
 165 00f4 3306B640 		sub	a2,a2,a1
 166 00f8 23B0C600 		sd	a2,0(a3)
  34:src/MemoryAllocator.cpp **** 
  35:src/MemoryAllocator.cpp ****     (!prev ? segDescHead : prev->next) = curr->next;
 167              		.loc 1 35 5 is_stmt 1
 168              		.loc 1 35 40 is_stmt 0
 169 00fc 63040704 		beqz	a4,.L21
 170              		.loc 1 35 48 discriminator 2
 171 0100 83378500 		ld	a5,8(a0)
 172              		.loc 1 35 40 discriminator 2
 173 0104 2334F700 		sd	a5,8(a4)
 174              	.L15:
  36:src/MemoryAllocator.cpp **** 
  37:src/MemoryAllocator.cpp ****     void *addr = (uint8 *) curr + size;
 175              		.loc 1 37 5 is_stmt 1
 176              		.loc 1 37 11 is_stmt 0
 177 0108 3306B500 		add	a2,a0,a1
 178              	.LVL8:
  38:src/MemoryAllocator.cpp **** 
  39:src/MemoryAllocator.cpp ****     if (curr->size - size >= MEM_BLOCK_SIZE) {
 179              		.loc 1 39 5 is_stmt 1
 180              	.LBB2:
 181              		.loc 1 39 15 is_stmt 0
GAS LISTING /tmp/ccdzbt4h.s 			page 5


 182 010c 83370500 		ld	a5,0(a0)
 183              		.loc 1 39 20
 184 0110 B387B740 		sub	a5,a5,a1
 185              		.loc 1 39 5
 186 0114 1308F003 		li	a6,63
 187 0118 637CF800 		bleu	a5,a6,.L16
 188              	.LBB3:
  40:src/MemoryAllocator.cpp ****         FreeSegDesc *elem = (FreeSegDesc *) addr;
 189              		.loc 1 40 9 is_stmt 1
 190              	.LVL9:
  41:src/MemoryAllocator.cpp ****         elem->size = curr->size - size;
 191              		.loc 1 41 9
 192              		.loc 1 41 20 is_stmt 0
 193 011c 2330F600 		sd	a5,0(a2)
  42:src/MemoryAllocator.cpp ****         elem->next = curr->next;
 194              		.loc 1 42 9 is_stmt 1
 195              		.loc 1 42 28 is_stmt 0
 196 0120 83378500 		ld	a5,8(a0)
 197              		.loc 1 42 20
 198 0124 2334F600 		sd	a5,8(a2)
  43:src/MemoryAllocator.cpp ****         (!prev ? segDescHead : prev->next) = elem;
 199              		.loc 1 43 9 is_stmt 1
 200              		.loc 1 43 44 is_stmt 0
 201 0128 63040702 		beqz	a4,.L22
 202              		.loc 1 43 44 discriminator 2
 203 012c 2334C700 		sd	a2,8(a4)
 204              	.LVL10:
 205              	.L16:
 206              	.LBE3:
 207              	.LBE2:
  44:src/MemoryAllocator.cpp ****     }
  45:src/MemoryAllocator.cpp **** 
  46:src/MemoryAllocator.cpp ****     *(size_t *) curr = size;
 208              		.loc 1 46 5 is_stmt 1
 209              		.loc 1 46 22 is_stmt 0
 210 0130 2330B500 		sd	a1,0(a0)
  47:src/MemoryAllocator.cpp **** 
  48:src/MemoryAllocator.cpp ****     return (uint8 *) curr + MEM_BLOCK_SIZE;
 211              		.loc 1 48 5 is_stmt 1
 212              		.loc 1 48 29 is_stmt 0
 213 0134 13050504 		addi	a0,a0,64
 214              	.LVL11:
 215              	.L10:
  49:src/MemoryAllocator.cpp **** }
 216              		.loc 1 49 1
 217 0138 03348100 		ld	s0,8(sp)
 218              		.cfi_remember_state
 219              		.cfi_restore 8
 220              		.cfi_def_cfa 2, 16
 221 013c 13010101 		addi	sp,sp,16
 222              		.cfi_def_cfa_offset 0
 223 0140 67800000 		jr	ra
 224              	.LVL12:
 225              	.L21:
 226              		.cfi_restore_state
  35:src/MemoryAllocator.cpp **** 
 227              		.loc 1 35 48 discriminator 1
GAS LISTING /tmp/ccdzbt4h.s 			page 6


 228 0144 83378500 		ld	a5,8(a0)
  35:src/MemoryAllocator.cpp **** 
 229              		.loc 1 35 40 discriminator 1
 230 0148 23B4F600 		sd	a5,8(a3)
 231 014c 6FF0DFFB 		j	.L15
 232              	.LVL13:
 233              	.L22:
 234              	.LBB5:
 235              	.LBB4:
  43:src/MemoryAllocator.cpp ****     }
 236              		.loc 1 43 44 discriminator 1
 237 0150 23B4C600 		sd	a2,8(a3)
 238 0154 6FF0DFFD 		j	.L16
 239              	.LVL14:
 240              	.L18:
 241              	.LBE4:
 242              	.LBE5:
  22:src/MemoryAllocator.cpp ****     size += MEM_BLOCK_SIZE;
 243              		.loc 1 22 66
 244 0158 13050000 		li	a0,0
 245              	.LVL15:
 246 015c 6FF0DFFD 		j	.L10
 247              	.LVL16:
 248              	.L19:
 249 0160 13050000 		li	a0,0
 250              	.LVL17:
 251 0164 6FF05FFD 		j	.L10
 252              		.cfi_endproc
 253              	.LFE2:
 255              		.align	2
 256              		.globl	_ZN15MemoryAllocator9tryToJoinEPNS_11FreeSegDescE
 258              	_ZN15MemoryAllocator9tryToJoinEPNS_11FreeSegDescE:
 259              	.LFB4:
  50:src/MemoryAllocator.cpp **** 
  51:src/MemoryAllocator.cpp **** int MemoryAllocator::free(void *addr) {
  52:src/MemoryAllocator.cpp ****     if (!addr || (uint8 *)addr < (uint8 *)HEAP_START_ADDR + 2 * MEM_BLOCK_SIZE || addr >= HEAP_END_
  53:src/MemoryAllocator.cpp **** 
  54:src/MemoryAllocator.cpp ****     addr = (uint8 *) addr - MEM_BLOCK_SIZE;
  55:src/MemoryAllocator.cpp ****     size_t size = *(size_t *) addr;
  56:src/MemoryAllocator.cpp **** 
  57:src/MemoryAllocator.cpp ****     FreeSegDesc *curr = segDescHead, *prev = nullptr;
  58:src/MemoryAllocator.cpp **** 
  59:src/MemoryAllocator.cpp ****     while (curr && curr < addr) {
  60:src/MemoryAllocator.cpp ****         prev = curr;
  61:src/MemoryAllocator.cpp ****         curr = curr->next;
  62:src/MemoryAllocator.cpp ****     }
  63:src/MemoryAllocator.cpp **** 
  64:src/MemoryAllocator.cpp ****     if ((prev && (uint8 *) prev + prev->size > addr) || (curr && (uint8 *) addr + size > (uint8 *) 
  65:src/MemoryAllocator.cpp ****         return -2;
  66:src/MemoryAllocator.cpp **** 
  67:src/MemoryAllocator.cpp ****     FreeSegDesc *elem = (FreeSegDesc *) addr;
  68:src/MemoryAllocator.cpp ****     elem->size = size;
  69:src/MemoryAllocator.cpp ****     elem->next = curr;
  70:src/MemoryAllocator.cpp ****     (!prev ? segDescHead : prev->next) = elem;
  71:src/MemoryAllocator.cpp **** 
  72:src/MemoryAllocator.cpp ****     freeMemSize += elem->size;
  73:src/MemoryAllocator.cpp **** 
GAS LISTING /tmp/ccdzbt4h.s 			page 7


  74:src/MemoryAllocator.cpp ****     tryToJoin(elem);
  75:src/MemoryAllocator.cpp ****     tryToJoin(prev);
  76:src/MemoryAllocator.cpp **** 
  77:src/MemoryAllocator.cpp ****     return 0;
  78:src/MemoryAllocator.cpp **** }
  79:src/MemoryAllocator.cpp **** 
  80:src/MemoryAllocator.cpp **** int MemoryAllocator::tryToJoin(MemoryAllocator::FreeSegDesc *curr) {
 260              		.loc 1 80 68 is_stmt 1
 261              		.cfi_startproc
 262              	.LVL18:
 263 0168 130101FF 		addi	sp,sp,-16
 264              		.cfi_def_cfa_offset 16
 265 016c 23348100 		sd	s0,8(sp)
 266              		.cfi_offset 8, -8
 267 0170 13040101 		addi	s0,sp,16
 268              		.cfi_def_cfa 8, 0
  81:src/MemoryAllocator.cpp ****     if (!curr || !curr->next) return -1;
 269              		.loc 1 81 5
 270 0174 630E0502 		beqz	a0,.L25
 271              		.loc 1 81 25 is_stmt 0 discriminator 2
 272 0178 83378500 		ld	a5,8(a0)
 273              		.loc 1 81 15 discriminator 2
 274 017c 638E0702 		beqz	a5,.L26
  82:src/MemoryAllocator.cpp **** 
  83:src/MemoryAllocator.cpp ****     if ((uint8 *) curr + curr->size != (uint8 *) curr->next) return -1;
 275              		.loc 1 83 5 is_stmt 1
 276              		.loc 1 83 32 is_stmt 0
 277 0180 03370500 		ld	a4,0(a0)
 278              		.loc 1 83 24
 279 0184 B306E500 		add	a3,a0,a4
 280              		.loc 1 83 5
 281 0188 639CD702 		bne	a5,a3,.L27
  84:src/MemoryAllocator.cpp **** 
  85:src/MemoryAllocator.cpp ****     curr->size += curr->next->size;
 282              		.loc 1 85 5 is_stmt 1
 283              		.loc 1 85 31 is_stmt 0
 284 018c 83B60700 		ld	a3,0(a5)
 285              		.loc 1 85 16
 286 0190 3307D700 		add	a4,a4,a3
 287 0194 2330E500 		sd	a4,0(a0)
  86:src/MemoryAllocator.cpp ****     curr->next = curr->next->next;
 288              		.loc 1 86 5 is_stmt 1
 289              		.loc 1 86 30 is_stmt 0
 290 0198 83B78700 		ld	a5,8(a5)
 291              		.loc 1 86 16
 292 019c 2334F500 		sd	a5,8(a0)
  87:src/MemoryAllocator.cpp **** 
  88:src/MemoryAllocator.cpp ****     return 0;
 293              		.loc 1 88 5 is_stmt 1
 294              		.loc 1 88 12 is_stmt 0
 295 01a0 13050000 		li	a0,0
 296              	.LVL19:
 297              	.L24:
  89:src/MemoryAllocator.cpp **** }
 298              		.loc 1 89 1
 299 01a4 03348100 		ld	s0,8(sp)
 300              		.cfi_remember_state
GAS LISTING /tmp/ccdzbt4h.s 			page 8


 301              		.cfi_restore 8
 302              		.cfi_def_cfa 2, 16
 303 01a8 13010101 		addi	sp,sp,16
 304              		.cfi_def_cfa_offset 0
 305 01ac 67800000 		jr	ra
 306              	.LVL20:
 307              	.L25:
 308              		.cfi_restore_state
  81:src/MemoryAllocator.cpp **** 
 309              		.loc 1 81 39
 310 01b0 1305F0FF 		li	a0,-1
 311              	.LVL21:
 312 01b4 6FF01FFF 		j	.L24
 313              	.LVL22:
 314              	.L26:
 315 01b8 1305F0FF 		li	a0,-1
 316              	.LVL23:
 317 01bc 6FF09FFE 		j	.L24
 318              	.LVL24:
 319              	.L27:
  83:src/MemoryAllocator.cpp **** 
 320              		.loc 1 83 70
 321 01c0 1305F0FF 		li	a0,-1
 322              	.LVL25:
 323 01c4 6FF01FFE 		j	.L24
 324              		.cfi_endproc
 325              	.LFE4:
 327              		.align	2
 328              		.globl	_ZN15MemoryAllocator4freeEPv
 330              	_ZN15MemoryAllocator4freeEPv:
 331              	.LFB3:
  51:src/MemoryAllocator.cpp ****     if (!addr || (uint8 *)addr < (uint8 *)HEAP_START_ADDR + 2 * MEM_BLOCK_SIZE || addr >= HEAP_END_
 332              		.loc 1 51 39 is_stmt 1
 333              		.cfi_startproc
 334              	.LVL26:
  52:src/MemoryAllocator.cpp **** 
 335              		.loc 1 52 5
 336 01c8 6388050C 		beqz	a1,.L37
 337 01cc 13070500 		mv	a4,a0
  52:src/MemoryAllocator.cpp **** 
 338              		.loc 1 52 34 is_stmt 0 discriminator 2
 339 01d0 97070000 		la	a5,HEAP_START_ADDR
 339      83B70700 
 340 01d8 83B70700 		ld	a5,0(a5)
  52:src/MemoryAllocator.cpp **** 
 341              		.loc 1 52 59 discriminator 2
 342 01dc 93870708 		addi	a5,a5,128
  52:src/MemoryAllocator.cpp **** 
 343              		.loc 1 52 15 discriminator 2
 344 01e0 63E0F50C 		bgtu	a5,a1,.L38
  52:src/MemoryAllocator.cpp **** 
 345              		.loc 1 52 88 discriminator 4
 346 01e4 97070000 		la	a5,HEAP_END_ADDR
 346      83B70700 
 347 01ec 83B70700 		ld	a5,0(a5)
  52:src/MemoryAllocator.cpp **** 
 348              		.loc 1 52 80 discriminator 4
GAS LISTING /tmp/ccdzbt4h.s 			page 9


 349 01f0 63FCF50A 		bleu	a5,a1,.L39
  51:src/MemoryAllocator.cpp ****     if (!addr || (uint8 *)addr < (uint8 *)HEAP_START_ADDR + 2 * MEM_BLOCK_SIZE || addr >= HEAP_END_
 350              		.loc 1 51 39
 351 01f4 130101FE 		addi	sp,sp,-32
 352              		.cfi_def_cfa_offset 32
 353 01f8 233C1100 		sd	ra,24(sp)
 354 01fc 23388100 		sd	s0,16(sp)
 355 0200 23349100 		sd	s1,8(sp)
 356              		.cfi_offset 1, -8
 357              		.cfi_offset 8, -16
 358              		.cfi_offset 9, -24
 359 0204 13040102 		addi	s0,sp,32
 360              		.cfi_def_cfa 8, 0
  54:src/MemoryAllocator.cpp ****     size_t size = *(size_t *) addr;
 361              		.loc 1 54 5 is_stmt 1
  54:src/MemoryAllocator.cpp ****     size_t size = *(size_t *) addr;
 362              		.loc 1 54 10 is_stmt 0
 363 0208 138505FC 		addi	a0,a1,-64
 364              	.LVL27:
  55:src/MemoryAllocator.cpp **** 
 365              		.loc 1 55 5 is_stmt 1
  55:src/MemoryAllocator.cpp **** 
 366              		.loc 1 55 12 is_stmt 0
 367 020c 83B605FC 		ld	a3,-64(a1)
 368              	.LVL28:
  57:src/MemoryAllocator.cpp **** 
 369              		.loc 1 57 5 is_stmt 1
  57:src/MemoryAllocator.cpp **** 
 370              		.loc 1 57 18 is_stmt 0
 371 0210 83378700 		ld	a5,8(a4)
 372              	.LVL29:
  57:src/MemoryAllocator.cpp **** 
 373              		.loc 1 57 39
 374 0214 93040000 		li	s1,0
 375              	.LVL30:
 376              	.L32:
  59:src/MemoryAllocator.cpp ****         prev = curr;
 377              		.loc 1 59 5 is_stmt 1
  59:src/MemoryAllocator.cpp ****         prev = curr;
 378              		.loc 1 59 17
 379 0218 638A0700 		beqz	a5,.L31
  59:src/MemoryAllocator.cpp ****         prev = curr;
 380              		.loc 1 59 17 is_stmt 0 discriminator 1
 381 021c 63F8A700 		bgeu	a5,a0,.L31
  60:src/MemoryAllocator.cpp ****         curr = curr->next;
 382              		.loc 1 60 9 is_stmt 1
 383              	.LVL31:
  61:src/MemoryAllocator.cpp ****     }
 384              		.loc 1 61 9
  60:src/MemoryAllocator.cpp ****         curr = curr->next;
 385              		.loc 1 60 14 is_stmt 0
 386 0220 93840700 		mv	s1,a5
  61:src/MemoryAllocator.cpp ****     }
 387              		.loc 1 61 14
 388 0224 83B78700 		ld	a5,8(a5)
 389              	.LVL32:
  59:src/MemoryAllocator.cpp ****         prev = curr;
GAS LISTING /tmp/ccdzbt4h.s 			page 10


 390              		.loc 1 59 5
 391 0228 6FF01FFF 		j	.L32
 392              	.L31:
  64:src/MemoryAllocator.cpp ****         return -2;
 393              		.loc 1 64 5 is_stmt 1
 394 022c 63880400 		beqz	s1,.L33
  64:src/MemoryAllocator.cpp ****         return -2;
 395              		.loc 1 64 41 is_stmt 0 discriminator 1
 396 0230 03B60400 		ld	a2,0(s1)
  64:src/MemoryAllocator.cpp ****         return -2;
 397              		.loc 1 64 33 discriminator 1
 398 0234 3386C400 		add	a2,s1,a2
  64:src/MemoryAllocator.cpp ****         return -2;
 399              		.loc 1 64 15 discriminator 1
 400 0238 636CC506 		bgtu	a2,a0,.L40
 401              	.L33:
  64:src/MemoryAllocator.cpp ****         return -2;
 402              		.loc 1 64 54 discriminator 3
 403 023c 63860700 		beqz	a5,.L34
  64:src/MemoryAllocator.cpp ****         return -2;
 404              		.loc 1 64 81 discriminator 4
 405 0240 B306D500 		add	a3,a0,a3
 406              	.LVL33:
  64:src/MemoryAllocator.cpp ****         return -2;
 407              		.loc 1 64 63 discriminator 4
 408 0244 63EAD706 		bgtu	a3,a5,.L41
 409              	.L34:
  67:src/MemoryAllocator.cpp ****     elem->size = size;
 410              		.loc 1 67 5 is_stmt 1
 411              	.LVL34:
  68:src/MemoryAllocator.cpp ****     elem->next = curr;
 412              		.loc 1 68 5
  69:src/MemoryAllocator.cpp ****     (!prev ? segDescHead : prev->next) = elem;
 413              		.loc 1 69 5
  69:src/MemoryAllocator.cpp ****     (!prev ? segDescHead : prev->next) = elem;
 414              		.loc 1 69 16 is_stmt 0
 415 0248 23B4F5FC 		sd	a5,-56(a1)
  70:src/MemoryAllocator.cpp **** 
 416              		.loc 1 70 5 is_stmt 1
  70:src/MemoryAllocator.cpp **** 
 417              		.loc 1 70 40 is_stmt 0
 418 024c 63820404 		beqz	s1,.L46
  70:src/MemoryAllocator.cpp **** 
 419              		.loc 1 70 40 discriminator 2
 420 0250 23B4A400 		sd	a0,8(s1)
 421              	.LVL35:
 422              	.L36:
  72:src/MemoryAllocator.cpp **** 
 423              		.loc 1 72 5 is_stmt 1
  72:src/MemoryAllocator.cpp **** 
 424              		.loc 1 72 26 is_stmt 0
 425 0254 83B605FC 		ld	a3,-64(a1)
  72:src/MemoryAllocator.cpp **** 
 426              		.loc 1 72 17
 427 0258 83370700 		ld	a5,0(a4)
 428              	.LVL36:
 429 025c B387D700 		add	a5,a5,a3
GAS LISTING /tmp/ccdzbt4h.s 			page 11


 430 0260 2330F700 		sd	a5,0(a4)
  74:src/MemoryAllocator.cpp ****     tryToJoin(prev);
 431              		.loc 1 74 5 is_stmt 1
  74:src/MemoryAllocator.cpp ****     tryToJoin(prev);
 432              		.loc 1 74 14 is_stmt 0
 433 0264 97000000 		call	_ZN15MemoryAllocator9tryToJoinEPNS_11FreeSegDescE
 433      E7800000 
 434              	.LVL37:
  75:src/MemoryAllocator.cpp **** 
 435              		.loc 1 75 5 is_stmt 1
  75:src/MemoryAllocator.cpp **** 
 436              		.loc 1 75 14 is_stmt 0
 437 026c 13850400 		mv	a0,s1
 438 0270 97000000 		call	_ZN15MemoryAllocator9tryToJoinEPNS_11FreeSegDescE
 438      E7800000 
 439              	.LVL38:
  77:src/MemoryAllocator.cpp **** }
 440              		.loc 1 77 5 is_stmt 1
  77:src/MemoryAllocator.cpp **** }
 441              		.loc 1 77 12 is_stmt 0
 442 0278 13050000 		li	a0,0
 443              	.LVL39:
 444              	.L30:
  78:src/MemoryAllocator.cpp **** 
 445              		.loc 1 78 1
 446 027c 83308101 		ld	ra,24(sp)
 447              		.cfi_remember_state
 448              		.cfi_restore 1
 449 0280 03340101 		ld	s0,16(sp)
 450              		.cfi_restore 8
 451              		.cfi_def_cfa 2, 32
 452 0284 83348100 		ld	s1,8(sp)
 453              		.cfi_restore 9
 454              	.LVL40:
 455 0288 13010102 		addi	sp,sp,32
 456              		.cfi_def_cfa_offset 0
 457 028c 67800000 		jr	ra
 458              	.LVL41:
 459              	.L46:
 460              		.cfi_restore_state
  70:src/MemoryAllocator.cpp **** 
 461              		.loc 1 70 40 discriminator 1
 462 0290 2334A700 		sd	a0,8(a4)
 463              	.LVL42:
 464 0294 6FF01FFC 		j	.L36
 465              	.LVL43:
 466              	.L37:
 467              		.cfi_def_cfa_register 2
 468              		.cfi_restore 1
 469              		.cfi_restore 8
 470              		.cfi_restore 9
  52:src/MemoryAllocator.cpp **** 
 471              		.loc 1 52 114
 472 0298 1305F0FF 		li	a0,-1
 473              	.LVL44:
 474 029c 67800000 		ret
 475              	.LVL45:
GAS LISTING /tmp/ccdzbt4h.s 			page 12


 476              	.L38:
 477 02a0 1305F0FF 		li	a0,-1
 478              	.LVL46:
 479 02a4 67800000 		ret
 480              	.LVL47:
 481              	.L39:
 482 02a8 1305F0FF 		li	a0,-1
 483              	.LVL48:
  78:src/MemoryAllocator.cpp **** 
 484              		.loc 1 78 1
 485 02ac 67800000 		ret
 486              	.LVL49:
 487              	.L40:
 488              		.cfi_def_cfa_register 8
 489              		.cfi_offset 1, -8
 490              		.cfi_offset 8, -16
 491              		.cfi_offset 9, -24
  65:src/MemoryAllocator.cpp **** 
 492              		.loc 1 65 17
 493 02b0 1305E0FF 		li	a0,-2
 494              	.LVL50:
 495 02b4 6FF09FFC 		j	.L30
 496              	.LVL51:
 497              	.L41:
 498 02b8 1305E0FF 		li	a0,-2
 499              	.LVL52:
 500 02bc 6FF01FFC 		j	.L30
 501              		.cfi_endproc
 502              	.LFE3:
 504              		.globl	_ZN15MemoryAllocator8instanceE
 505              		.bss
 506              		.align	3
 507              		.set	.LANCHOR0,. + 0
 510              	_ZN15MemoryAllocator8instanceE:
 511 0000 00000000 		.zero	8
 511      00000000 
 512              		.text
 513              	.Letext0:
 514              		.file 2 "src/../h/../lib/hw.h"
 515              		.file 3 "src/../h/MemoryAllocator.h"
GAS LISTING /tmp/ccdzbt4h.s 			page 13


DEFINED SYMBOLS
                            *ABS*:0000000000000000 MemoryAllocator.cpp
     /tmp/ccdzbt4h.s:9      .text:0000000000000000 _ZN15MemoryAllocator19initMemoryAllocatorEv
     /tmp/ccdzbt4h.s:13     .text:0000000000000000 .L0 
     /tmp/ccdzbt4h.s:14     .text:0000000000000000 .L0 
     /tmp/ccdzbt4h.s:15     .text:0000000000000004 .L0 
     /tmp/ccdzbt4h.s:17     .text:0000000000000008 .L0 
     /tmp/ccdzbt4h.s:19     .text:000000000000000c .L0 
     /tmp/ccdzbt4h.s:21     .text:000000000000000c .L0 
     /tmp/ccdzbt4h.s:22     .text:000000000000000c .L0 
     /tmp/ccdzbt4h.s:27     .text:0000000000000024 .L0 
     /tmp/ccdzbt4h.s:28     .text:0000000000000024 .L0 
     /tmp/ccdzbt4h.s:31     .text:0000000000000030 .L0 
     /tmp/ccdzbt4h.s:33     .text:0000000000000034 .L0 
     /tmp/ccdzbt4h.s:35     .text:0000000000000038 .L0 
     /tmp/ccdzbt4h.s:37     .text:000000000000003c .L0 
     /tmp/ccdzbt4h.s:38     .text:000000000000003c .L0 
     /tmp/ccdzbt4h.s:40     .text:0000000000000040 .L0 
     /tmp/ccdzbt4h.s:43     .text:0000000000000048 .L0 
     /tmp/ccdzbt4h.s:45     .text:000000000000004c .L0 
     /tmp/ccdzbt4h.s:46     .text:000000000000004c .L0 
     /tmp/ccdzbt4h.s:48     .text:0000000000000050 .L0 
     /tmp/ccdzbt4h.s:50     .text:0000000000000054 .L0 
     /tmp/ccdzbt4h.s:51     .text:0000000000000054 .L0 
     /tmp/ccdzbt4h.s:53     .text:0000000000000058 .L0 
     /tmp/ccdzbt4h.s:55     .text:000000000000005c .L0 
     /tmp/ccdzbt4h.s:56     .text:0000000000000060 .L0 
     /tmp/ccdzbt4h.s:57     .text:0000000000000060 .L0 
     /tmp/ccdzbt4h.s:59     .text:0000000000000064 .L0 
     /tmp/ccdzbt4h.s:61     .text:0000000000000068 .L0 
     /tmp/ccdzbt4h.s:67     .text:0000000000000068 _ZN15MemoryAllocator11getInstanceEv
     /tmp/ccdzbt4h.s:70     .text:0000000000000068 .L0 
     /tmp/ccdzbt4h.s:71     .text:0000000000000068 .L0 
     /tmp/ccdzbt4h.s:72     .text:0000000000000068 .L0 
     /tmp/ccdzbt4h.s:73     .text:0000000000000068 .L0 
     /tmp/ccdzbt4h.s:75     .text:0000000000000070 .L0 
     /tmp/ccdzbt4h.s:77     .text:0000000000000074 .L0 
     /tmp/ccdzbt4h.s:78     .text:0000000000000074 .L0 
     /tmp/ccdzbt4h.s:82     .text:0000000000000080 .L0 
     /tmp/ccdzbt4h.s:83     .text:0000000000000084 .L0 
     /tmp/ccdzbt4h.s:86     .text:000000000000008c .L0 
     /tmp/ccdzbt4h.s:87     .text:000000000000008c .L0 
     /tmp/ccdzbt4h.s:89     .text:0000000000000090 .L0 
     /tmp/ccdzbt4h.s:91     .text:0000000000000090 .L0 
     /tmp/ccdzbt4h.s:92     .text:0000000000000090 .L0 
     /tmp/ccdzbt4h.s:95     .text:0000000000000098 .L0 
     /tmp/ccdzbt4h.s:96     .text:0000000000000098 .L0 
     /tmp/ccdzbt4h.s:98     .text:00000000000000a4 .L0 
     /tmp/ccdzbt4h.s:100    .text:00000000000000a8 .L0 
     /tmp/ccdzbt4h.s:101    .text:00000000000000a8 .L0 
     /tmp/ccdzbt4h.s:103    .text:00000000000000ac .L0 
     /tmp/ccdzbt4h.s:105    .text:00000000000000b0 .L0 
     /tmp/ccdzbt4h.s:111    .text:00000000000000b0 _ZN15MemoryAllocator6mallocEm
     /tmp/ccdzbt4h.s:114    .text:00000000000000b0 .L0 
     /tmp/ccdzbt4h.s:116    .text:00000000000000b0 .L0 
     /tmp/ccdzbt4h.s:117    .text:00000000000000b4 .L0 
     /tmp/ccdzbt4h.s:119    .text:00000000000000b8 .L0 
GAS LISTING /tmp/ccdzbt4h.s 			page 14


     /tmp/ccdzbt4h.s:121    .text:00000000000000bc .L0 
     /tmp/ccdzbt4h.s:123    .text:00000000000000bc .L0 
     /tmp/ccdzbt4h.s:126    .text:00000000000000c4 .L0 
     /tmp/ccdzbt4h.s:129    .text:00000000000000c8 .L0 
     /tmp/ccdzbt4h.s:131    .text:00000000000000cc .L0 
     /tmp/ccdzbt4h.s:134    .text:00000000000000d0 .L0 
     /tmp/ccdzbt4h.s:135    .text:00000000000000d0 .L0 
     /tmp/ccdzbt4h.s:136    .text:00000000000000d0 .L0 
     /tmp/ccdzbt4h.s:139    .text:00000000000000d4 .L0 
     /tmp/ccdzbt4h.s:143    .text:00000000000000d8 .L0 
     /tmp/ccdzbt4h.s:144    .text:00000000000000d8 .L0 
     /tmp/ccdzbt4h.s:146    .text:00000000000000dc .L0 
     /tmp/ccdzbt4h.s:147    .text:00000000000000dc .L0 
     /tmp/ccdzbt4h.s:149    .text:00000000000000e0 .L0 
     /tmp/ccdzbt4h.s:152    .text:00000000000000e4 .L0 
     /tmp/ccdzbt4h.s:153    .text:00000000000000e4 .L0 
     /tmp/ccdzbt4h.s:154    .text:00000000000000e4 .L0 
     /tmp/ccdzbt4h.s:156    .text:00000000000000e8 .L0 
     /tmp/ccdzbt4h.s:159    .text:00000000000000ec .L0 
     /tmp/ccdzbt4h.s:162    .text:00000000000000f0 .L0 
     /tmp/ccdzbt4h.s:164    .text:00000000000000f4 .L0 
     /tmp/ccdzbt4h.s:165    .text:00000000000000f4 .L0 
     /tmp/ccdzbt4h.s:168    .text:00000000000000fc .L0 
     /tmp/ccdzbt4h.s:169    .text:00000000000000fc .L0 
     /tmp/ccdzbt4h.s:171    .text:0000000000000100 .L0 
     /tmp/ccdzbt4h.s:173    .text:0000000000000104 .L0 
     /tmp/ccdzbt4h.s:176    .text:0000000000000108 .L0 
     /tmp/ccdzbt4h.s:177    .text:0000000000000108 .L0 
     /tmp/ccdzbt4h.s:181    .text:000000000000010c .L0 
     /tmp/ccdzbt4h.s:182    .text:000000000000010c .L0 
     /tmp/ccdzbt4h.s:184    .text:0000000000000110 .L0 
     /tmp/ccdzbt4h.s:186    .text:0000000000000114 .L0 
     /tmp/ccdzbt4h.s:191    .text:000000000000011c .L0 
     /tmp/ccdzbt4h.s:192    .text:000000000000011c .L0 
     /tmp/ccdzbt4h.s:193    .text:000000000000011c .L0 
     /tmp/ccdzbt4h.s:195    .text:0000000000000120 .L0 
     /tmp/ccdzbt4h.s:196    .text:0000000000000120 .L0 
     /tmp/ccdzbt4h.s:198    .text:0000000000000124 .L0 
     /tmp/ccdzbt4h.s:200    .text:0000000000000128 .L0 
     /tmp/ccdzbt4h.s:201    .text:0000000000000128 .L0 
     /tmp/ccdzbt4h.s:203    .text:000000000000012c .L0 
     /tmp/ccdzbt4h.s:209    .text:0000000000000130 .L0 
     /tmp/ccdzbt4h.s:210    .text:0000000000000130 .L0 
     /tmp/ccdzbt4h.s:212    .text:0000000000000134 .L0 
     /tmp/ccdzbt4h.s:213    .text:0000000000000134 .L0 
     /tmp/ccdzbt4h.s:217    .text:0000000000000138 .L0 
     /tmp/ccdzbt4h.s:218    .text:000000000000013c .L0 
     /tmp/ccdzbt4h.s:219    .text:000000000000013c .L0 
     /tmp/ccdzbt4h.s:220    .text:000000000000013c .L0 
     /tmp/ccdzbt4h.s:222    .text:0000000000000140 .L0 
     /tmp/ccdzbt4h.s:226    .text:0000000000000144 .L0 
     /tmp/ccdzbt4h.s:228    .text:0000000000000144 .L0 
     /tmp/ccdzbt4h.s:230    .text:0000000000000148 .L0 
     /tmp/ccdzbt4h.s:237    .text:0000000000000150 .L0 
     /tmp/ccdzbt4h.s:244    .text:0000000000000158 .L0 
     /tmp/ccdzbt4h.s:252    .text:0000000000000168 .L0 
     /tmp/ccdzbt4h.s:258    .text:0000000000000168 _ZN15MemoryAllocator9tryToJoinEPNS_11FreeSegDescE
GAS LISTING /tmp/ccdzbt4h.s 			page 15


     /tmp/ccdzbt4h.s:261    .text:0000000000000168 .L0 
     /tmp/ccdzbt4h.s:263    .text:0000000000000168 .L0 
     /tmp/ccdzbt4h.s:264    .text:000000000000016c .L0 
     /tmp/ccdzbt4h.s:266    .text:0000000000000170 .L0 
     /tmp/ccdzbt4h.s:268    .text:0000000000000174 .L0 
     /tmp/ccdzbt4h.s:270    .text:0000000000000174 .L0 
     /tmp/ccdzbt4h.s:272    .text:0000000000000178 .L0 
     /tmp/ccdzbt4h.s:274    .text:000000000000017c .L0 
     /tmp/ccdzbt4h.s:276    .text:0000000000000180 .L0 
     /tmp/ccdzbt4h.s:277    .text:0000000000000180 .L0 
     /tmp/ccdzbt4h.s:279    .text:0000000000000184 .L0 
     /tmp/ccdzbt4h.s:281    .text:0000000000000188 .L0 
     /tmp/ccdzbt4h.s:283    .text:000000000000018c .L0 
     /tmp/ccdzbt4h.s:284    .text:000000000000018c .L0 
     /tmp/ccdzbt4h.s:286    .text:0000000000000190 .L0 
     /tmp/ccdzbt4h.s:289    .text:0000000000000198 .L0 
     /tmp/ccdzbt4h.s:290    .text:0000000000000198 .L0 
     /tmp/ccdzbt4h.s:292    .text:000000000000019c .L0 
     /tmp/ccdzbt4h.s:294    .text:00000000000001a0 .L0 
     /tmp/ccdzbt4h.s:295    .text:00000000000001a0 .L0 
     /tmp/ccdzbt4h.s:299    .text:00000000000001a4 .L0 
     /tmp/ccdzbt4h.s:300    .text:00000000000001a8 .L0 
     /tmp/ccdzbt4h.s:301    .text:00000000000001a8 .L0 
     /tmp/ccdzbt4h.s:302    .text:00000000000001a8 .L0 
     /tmp/ccdzbt4h.s:304    .text:00000000000001ac .L0 
     /tmp/ccdzbt4h.s:308    .text:00000000000001b0 .L0 
     /tmp/ccdzbt4h.s:310    .text:00000000000001b0 .L0 
     /tmp/ccdzbt4h.s:321    .text:00000000000001c0 .L0 
     /tmp/ccdzbt4h.s:324    .text:00000000000001c8 .L0 
     /tmp/ccdzbt4h.s:330    .text:00000000000001c8 _ZN15MemoryAllocator4freeEPv
     /tmp/ccdzbt4h.s:333    .text:00000000000001c8 .L0 
     /tmp/ccdzbt4h.s:335    .text:00000000000001c8 .L0 
     /tmp/ccdzbt4h.s:336    .text:00000000000001c8 .L0 
     /tmp/ccdzbt4h.s:339    .text:00000000000001d0 .L0 
     /tmp/ccdzbt4h.s:342    .text:00000000000001dc .L0 
     /tmp/ccdzbt4h.s:344    .text:00000000000001e0 .L0 
     /tmp/ccdzbt4h.s:346    .text:00000000000001e4 .L0 
     /tmp/ccdzbt4h.s:349    .text:00000000000001f0 .L0 
     /tmp/ccdzbt4h.s:351    .text:00000000000001f4 .L0 
     /tmp/ccdzbt4h.s:352    .text:00000000000001f8 .L0 
     /tmp/ccdzbt4h.s:356    .text:0000000000000204 .L0 
     /tmp/ccdzbt4h.s:357    .text:0000000000000204 .L0 
     /tmp/ccdzbt4h.s:358    .text:0000000000000204 .L0 
     /tmp/ccdzbt4h.s:360    .text:0000000000000208 .L0 
     /tmp/ccdzbt4h.s:362    .text:0000000000000208 .L0 
     /tmp/ccdzbt4h.s:363    .text:0000000000000208 .L0 
     /tmp/ccdzbt4h.s:366    .text:000000000000020c .L0 
     /tmp/ccdzbt4h.s:367    .text:000000000000020c .L0 
     /tmp/ccdzbt4h.s:370    .text:0000000000000210 .L0 
     /tmp/ccdzbt4h.s:371    .text:0000000000000210 .L0 
     /tmp/ccdzbt4h.s:374    .text:0000000000000214 .L0 
     /tmp/ccdzbt4h.s:378    .text:0000000000000218 .L0 
     /tmp/ccdzbt4h.s:379    .text:0000000000000218 .L0 
     /tmp/ccdzbt4h.s:381    .text:000000000000021c .L0 
     /tmp/ccdzbt4h.s:384    .text:0000000000000220 .L0 
     /tmp/ccdzbt4h.s:385    .text:0000000000000220 .L0 
     /tmp/ccdzbt4h.s:386    .text:0000000000000220 .L0 
GAS LISTING /tmp/ccdzbt4h.s 			page 16


     /tmp/ccdzbt4h.s:388    .text:0000000000000224 .L0 
     /tmp/ccdzbt4h.s:391    .text:0000000000000228 .L0 
     /tmp/ccdzbt4h.s:394    .text:000000000000022c .L0 
     /tmp/ccdzbt4h.s:396    .text:0000000000000230 .L0 
     /tmp/ccdzbt4h.s:398    .text:0000000000000234 .L0 
     /tmp/ccdzbt4h.s:400    .text:0000000000000238 .L0 
     /tmp/ccdzbt4h.s:403    .text:000000000000023c .L0 
     /tmp/ccdzbt4h.s:405    .text:0000000000000240 .L0 
     /tmp/ccdzbt4h.s:408    .text:0000000000000244 .L0 
     /tmp/ccdzbt4h.s:412    .text:0000000000000248 .L0 
     /tmp/ccdzbt4h.s:413    .text:0000000000000248 .L0 
     /tmp/ccdzbt4h.s:414    .text:0000000000000248 .L0 
     /tmp/ccdzbt4h.s:415    .text:0000000000000248 .L0 
     /tmp/ccdzbt4h.s:417    .text:000000000000024c .L0 
     /tmp/ccdzbt4h.s:418    .text:000000000000024c .L0 
     /tmp/ccdzbt4h.s:420    .text:0000000000000250 .L0 
     /tmp/ccdzbt4h.s:424    .text:0000000000000254 .L0 
     /tmp/ccdzbt4h.s:425    .text:0000000000000254 .L0 
     /tmp/ccdzbt4h.s:427    .text:0000000000000258 .L0 
     /tmp/ccdzbt4h.s:432    .text:0000000000000264 .L0 
     /tmp/ccdzbt4h.s:433    .text:0000000000000264 .L0 
     /tmp/ccdzbt4h.s:436    .text:000000000000026c .L0 
     /tmp/ccdzbt4h.s:437    .text:000000000000026c .L0 
     /tmp/ccdzbt4h.s:441    .text:0000000000000278 .L0 
     /tmp/ccdzbt4h.s:442    .text:0000000000000278 .L0 
     /tmp/ccdzbt4h.s:446    .text:000000000000027c .L0 
     /tmp/ccdzbt4h.s:447    .text:0000000000000280 .L0 
     /tmp/ccdzbt4h.s:448    .text:0000000000000280 .L0 
     /tmp/ccdzbt4h.s:450    .text:0000000000000284 .L0 
     /tmp/ccdzbt4h.s:451    .text:0000000000000284 .L0 
     /tmp/ccdzbt4h.s:453    .text:0000000000000288 .L0 
     /tmp/ccdzbt4h.s:456    .text:000000000000028c .L0 
     /tmp/ccdzbt4h.s:460    .text:0000000000000290 .L0 
     /tmp/ccdzbt4h.s:462    .text:0000000000000290 .L0 
     /tmp/ccdzbt4h.s:467    .text:0000000000000298 .L0 
     /tmp/ccdzbt4h.s:468    .text:0000000000000298 .L0 
     /tmp/ccdzbt4h.s:469    .text:0000000000000298 .L0 
     /tmp/ccdzbt4h.s:470    .text:0000000000000298 .L0 
     /tmp/ccdzbt4h.s:472    .text:0000000000000298 .L0 
     /tmp/ccdzbt4h.s:485    .text:00000000000002ac .L0 
     /tmp/ccdzbt4h.s:488    .text:00000000000002b0 .L0 
     /tmp/ccdzbt4h.s:489    .text:00000000000002b0 .L0 
     /tmp/ccdzbt4h.s:490    .text:00000000000002b0 .L0 
     /tmp/ccdzbt4h.s:491    .text:00000000000002b0 .L0 
     /tmp/ccdzbt4h.s:493    .text:00000000000002b0 .L0 
     /tmp/ccdzbt4h.s:501    .text:00000000000002c0 .L0 
     /tmp/ccdzbt4h.s:510    .bss:0000000000000000 _ZN15MemoryAllocator8instanceE
     /tmp/ccdzbt4h.s:507    .bss:0000000000000000 .LANCHOR0
     /tmp/ccdzbt4h.s:516    .text:00000000000002c0 .L0 
     /tmp/ccdzbt4h.s:22     .text:000000000000000c .L0 
     /tmp/ccdzbt4h.s:24     .text:0000000000000018 .L0 
     /tmp/ccdzbt4h.s:28     .text:0000000000000024 .L0 
     /tmp/ccdzbt4h.s:73     .text:0000000000000068 .L0 
     /tmp/ccdzbt4h.s:78     .text:0000000000000074 .L0 
     /tmp/ccdzbt4h.s:96     .text:0000000000000098 .L0 
     /tmp/ccdzbt4h.s:339    .text:00000000000001d0 .L0 
     /tmp/ccdzbt4h.s:346    .text:00000000000001e4 .L0 
GAS LISTING /tmp/ccdzbt4h.s 			page 17


     /tmp/ccdzbt4h.s:80     .text:0000000000000080 .L9
     /tmp/ccdzbt4h.s:240    .text:0000000000000158 .L18
     /tmp/ccdzbt4h.s:248    .text:0000000000000160 .L19
     /tmp/ccdzbt4h.s:160    .text:00000000000000f0 .L12
     /tmp/ccdzbt4h.s:141    .text:00000000000000d8 .L13
     /tmp/ccdzbt4h.s:215    .text:0000000000000138 .L10
     /tmp/ccdzbt4h.s:225    .text:0000000000000144 .L21
     /tmp/ccdzbt4h.s:205    .text:0000000000000130 .L16
     /tmp/ccdzbt4h.s:233    .text:0000000000000150 .L22
     /tmp/ccdzbt4h.s:174    .text:0000000000000108 .L15
     /tmp/ccdzbt4h.s:307    .text:00000000000001b0 .L25
     /tmp/ccdzbt4h.s:314    .text:00000000000001b8 .L26
     /tmp/ccdzbt4h.s:319    .text:00000000000001c0 .L27
     /tmp/ccdzbt4h.s:297    .text:00000000000001a4 .L24
     /tmp/ccdzbt4h.s:466    .text:0000000000000298 .L37
     /tmp/ccdzbt4h.s:476    .text:00000000000002a0 .L38
     /tmp/ccdzbt4h.s:481    .text:00000000000002a8 .L39
     /tmp/ccdzbt4h.s:392    .text:000000000000022c .L31
     /tmp/ccdzbt4h.s:376    .text:0000000000000218 .L32
     /tmp/ccdzbt4h.s:401    .text:000000000000023c .L33
     /tmp/ccdzbt4h.s:487    .text:00000000000002b0 .L40
     /tmp/ccdzbt4h.s:409    .text:0000000000000248 .L34
     /tmp/ccdzbt4h.s:497    .text:00000000000002b8 .L41
     /tmp/ccdzbt4h.s:459    .text:0000000000000290 .L46
     /tmp/ccdzbt4h.s:422    .text:0000000000000254 .L36
     /tmp/ccdzbt4h.s:444    .text:000000000000027c .L30
     /tmp/ccdzbt4h.s:966    .debug_abbrev:0000000000000000 .Ldebug_abbrev0
     /tmp/ccdzbt4h.s:1937   .debug_str:0000000000000071 .LASF35
     /tmp/ccdzbt4h.s:1985   .debug_str:00000000000002bb .LASF36
     /tmp/ccdzbt4h.s:1975   .debug_str:000000000000022f .LASF37
     /tmp/ccdzbt4h.s:5      .text:0000000000000000 .Ltext0
     /tmp/ccdzbt4h.s:513    .text:00000000000002c0 .Letext0
     /tmp/ccdzbt4h.s:1917   .debug_line:0000000000000000 .Ldebug_line0
     /tmp/ccdzbt4h.s:1971   .debug_str:000000000000020e .LASF0
     /tmp/ccdzbt4h.s:1957   .debug_str:00000000000001ae .LASF1
     /tmp/ccdzbt4h.s:1949   .debug_str:000000000000016d .LASF2
     /tmp/ccdzbt4h.s:1999   .debug_str:000000000000036d .LASF3
     /tmp/ccdzbt4h.s:1931   .debug_str:0000000000000042 .LASF4
     /tmp/ccdzbt4h.s:1955   .debug_str:000000000000019c .LASF5
     /tmp/ccdzbt4h.s:1923   .debug_str:0000000000000023 .LASF6
     /tmp/ccdzbt4h.s:1919   .debug_str:0000000000000000 .LASF7
     /tmp/ccdzbt4h.s:1945   .debug_str:000000000000014b .LASF8
     /tmp/ccdzbt4h.s:1979   .debug_str:0000000000000289 .LASF9
     /tmp/ccdzbt4h.s:1929   .debug_str:0000000000000034 .LASF10
     /tmp/ccdzbt4h.s:2011   .debug_str:00000000000003a3 .LASF11
     /tmp/ccdzbt4h.s:1947   .debug_str:000000000000015e .LASF12
     /tmp/ccdzbt4h.s:2003   .debug_str:000000000000037d .LASF13
     /tmp/ccdzbt4h.s:1987   .debug_str:00000000000002d3 .LASF14
     /tmp/ccdzbt4h.s:1959   .debug_str:00000000000001c1 .LASF15
     /tmp/ccdzbt4h.s:1941   .debug_str:0000000000000130 .LASF16
     /tmp/ccdzbt4h.s:1981   .debug_str:0000000000000299 .LASF17
     /tmp/ccdzbt4h.s:1921   .debug_str:0000000000000013 .LASF20
     /tmp/ccdzbt4h.s:1933   .debug_str:0000000000000049 .LASF38
     /tmp/ccdzbt4h.s:2007   .debug_str:0000000000000397 .LASF18
     /tmp/ccdzbt4h.s:1925   .debug_str:000000000000002a .LASF19
     /tmp/ccdzbt4h.s:1935   .debug_str:0000000000000055 .LASF22
     /tmp/ccdzbt4h.s:2005   .debug_str:000000000000038d .LASF21
GAS LISTING /tmp/ccdzbt4h.s 			page 18


     /tmp/ccdzbt4h.s:1953   .debug_str:0000000000000180 .LASF23
     /tmp/ccdzbt4h.s:1983   .debug_str:00000000000002af .LASF39
     /tmp/ccdzbt4h.s:1977   .debug_str:0000000000000265 .LASF40
     /tmp/ccdzbt4h.s:2009   .debug_str:000000000000039c .LASF24
     /tmp/ccdzbt4h.s:1995   .debug_str:000000000000031d .LASF25
     /tmp/ccdzbt4h.s:1989   .debug_str:00000000000002e3 .LASF26
     /tmp/ccdzbt4h.s:1939   .debug_str:0000000000000113 .LASF27
     /tmp/ccdzbt4h.s:1967   .debug_str:00000000000001fd .LASF28
     /tmp/ccdzbt4h.s:1961   .debug_str:00000000000001cd .LASF29
     /tmp/ccdzbt4h.s:1991   .debug_str:00000000000002e8 .LASF41
     /tmp/ccdzbt4h.s:1973   .debug_str:000000000000021b .LASF42
     /tmp/ccdzbt4h.s:1993   .debug_str:00000000000002f1 .LASF43
     /tmp/ccdzbt4h.s:2001   .debug_str:0000000000000373 .LASF44
     /tmp/ccdzbt4h.s:1997   .debug_str:000000000000033b .LASF45
     /tmp/ccdzbt4h.s:1963   .debug_str:00000000000001d9 .LASF46
     /tmp/ccdzbt4h.s:259    .text:0000000000000168 .LFB4
     /tmp/ccdzbt4h.s:325    .text:00000000000001c8 .LFE4
     /tmp/ccdzbt4h.s:1927   .debug_str:000000000000002f .LASF30
     /tmp/ccdzbt4h.s:1513   .debug_loc:0000000000000000 .LLST6
     /tmp/ccdzbt4h.s:331    .text:00000000000001c8 .LFB3
     /tmp/ccdzbt4h.s:502    .text:00000000000002c0 .LFE3
     /tmp/ccdzbt4h.s:1951   .debug_str:000000000000017b .LASF34
     /tmp/ccdzbt4h.s:1560   .debug_loc:00000000000000b4 .LLST7
     /tmp/ccdzbt4h.s:1943   .debug_str:0000000000000146 .LASF31
     /tmp/ccdzbt4h.s:1609   .debug_loc:0000000000000188 .LLST8
     /tmp/ccdzbt4h.s:1658   .debug_loc:000000000000024d .LLST9
     /tmp/ccdzbt4h.s:1689   .debug_loc:00000000000002d3 .LLST10
     /tmp/ccdzbt4h.s:1969   .debug_str:0000000000000209 .LASF32
     /tmp/ccdzbt4h.s:1713   .debug_loc:0000000000000343 .LLST11
     /tmp/ccdzbt4h.s:1965   .debug_str:00000000000001f8 .LASF33
     /tmp/ccdzbt4h.s:1741   .debug_loc:00000000000003c6 .LLST12
     /tmp/ccdzbt4h.s:434    .text:000000000000026c .LVL37
     /tmp/ccdzbt4h.s:439    .text:0000000000000278 .LVL38
     /tmp/ccdzbt4h.s:112    .text:00000000000000b0 .LFB2
     /tmp/ccdzbt4h.s:253    .text:0000000000000168 .LFE2
     /tmp/ccdzbt4h.s:1762   .debug_loc:0000000000000415 .LLST0
     /tmp/ccdzbt4h.s:1803   .debug_loc:00000000000004c3 .LLST1
     /tmp/ccdzbt4h.s:1830   .debug_loc:0000000000000536 .LLST2
     /tmp/ccdzbt4h.s:1850   .debug_loc:0000000000000593 .LLST3
     /tmp/ccdzbt4h.s:1874   .debug_loc:0000000000000603 .LLST4
     /tmp/ccdzbt4h.s:1909   .debug_ranges:0000000000000000 .Ldebug_ranges0
     /tmp/ccdzbt4h.s:1885   .debug_loc:0000000000000639 .LLST5
     /tmp/ccdzbt4h.s:68     .text:0000000000000068 .LFB1
     /tmp/ccdzbt4h.s:106    .text:00000000000000b0 .LFE1
     /tmp/ccdzbt4h.s:93     .text:0000000000000098 .LVL0
     /tmp/ccdzbt4h.s:10     .text:0000000000000000 .LFB0
     /tmp/ccdzbt4h.s:62     .text:0000000000000068 .LFE0
     /tmp/ccdzbt4h.s:262    .text:0000000000000168 .LVL18
     /tmp/ccdzbt4h.s:296    .text:00000000000001a4 .LVL19
     /tmp/ccdzbt4h.s:306    .text:00000000000001b0 .LVL20
     /tmp/ccdzbt4h.s:311    .text:00000000000001b4 .LVL21
     /tmp/ccdzbt4h.s:313    .text:00000000000001b8 .LVL22
     /tmp/ccdzbt4h.s:316    .text:00000000000001bc .LVL23
     /tmp/ccdzbt4h.s:318    .text:00000000000001c0 .LVL24
     /tmp/ccdzbt4h.s:322    .text:00000000000001c4 .LVL25
     /tmp/ccdzbt4h.s:334    .text:00000000000001c8 .LVL26
     /tmp/ccdzbt4h.s:364    .text:000000000000020c .LVL27
GAS LISTING /tmp/ccdzbt4h.s 			page 19


     /tmp/ccdzbt4h.s:458    .text:0000000000000290 .LVL41
     /tmp/ccdzbt4h.s:465    .text:0000000000000298 .LVL43
     /tmp/ccdzbt4h.s:473    .text:000000000000029c .LVL44
     /tmp/ccdzbt4h.s:475    .text:00000000000002a0 .LVL45
     /tmp/ccdzbt4h.s:478    .text:00000000000002a4 .LVL46
     /tmp/ccdzbt4h.s:480    .text:00000000000002a8 .LVL47
     /tmp/ccdzbt4h.s:483    .text:00000000000002ac .LVL48
     /tmp/ccdzbt4h.s:486    .text:00000000000002b0 .LVL49
     /tmp/ccdzbt4h.s:494    .text:00000000000002b4 .LVL50
     /tmp/ccdzbt4h.s:496    .text:00000000000002b8 .LVL51
     /tmp/ccdzbt4h.s:499    .text:00000000000002bc .LVL52
     /tmp/ccdzbt4h.s:368    .text:0000000000000210 .LVL28
     /tmp/ccdzbt4h.s:406    .text:0000000000000244 .LVL33
     /tmp/ccdzbt4h.s:421    .text:0000000000000254 .LVL35
     /tmp/ccdzbt4h.s:463    .text:0000000000000294 .LVL42
     /tmp/ccdzbt4h.s:372    .text:0000000000000214 .LVL29
     /tmp/ccdzbt4h.s:383    .text:0000000000000220 .LVL31
     /tmp/ccdzbt4h.s:389    .text:0000000000000228 .LVL32
     /tmp/ccdzbt4h.s:428    .text:000000000000025c .LVL36
     /tmp/ccdzbt4h.s:375    .text:0000000000000218 .LVL30
     /tmp/ccdzbt4h.s:454    .text:0000000000000288 .LVL40
     /tmp/ccdzbt4h.s:411    .text:0000000000000248 .LVL34
     /tmp/ccdzbt4h.s:443    .text:000000000000027c .LVL39
     /tmp/ccdzbt4h.s:115    .text:00000000000000b0 .LVL1
     /tmp/ccdzbt4h.s:137    .text:00000000000000d4 .LVL4
     /tmp/ccdzbt4h.s:214    .text:0000000000000138 .LVL11
     /tmp/ccdzbt4h.s:224    .text:0000000000000144 .LVL12
     /tmp/ccdzbt4h.s:239    .text:0000000000000158 .LVL14
     /tmp/ccdzbt4h.s:245    .text:000000000000015c .LVL15
     /tmp/ccdzbt4h.s:247    .text:0000000000000160 .LVL16
     /tmp/ccdzbt4h.s:250    .text:0000000000000164 .LVL17
     /tmp/ccdzbt4h.s:127    .text:00000000000000c8 .LVL2
     /tmp/ccdzbt4h.s:133    .text:00000000000000d0 .LVL3
     /tmp/ccdzbt4h.s:151    .text:00000000000000e4 .LVL6
     /tmp/ccdzbt4h.s:157    .text:00000000000000ec .LVL7
     /tmp/ccdzbt4h.s:140    .text:00000000000000d8 .LVL5
     /tmp/ccdzbt4h.s:178    .text:000000000000010c .LVL8
     /tmp/ccdzbt4h.s:232    .text:0000000000000150 .LVL13
     /tmp/ccdzbt4h.s:190    .text:000000000000011c .LVL9
     /tmp/ccdzbt4h.s:204    .text:0000000000000130 .LVL10
     /tmp/ccdzbt4h.s:517    .debug_info:0000000000000000 .Ldebug_info0
     /tmp/ccdzbt4h.s:188    .text:000000000000011c .LBB3
     /tmp/ccdzbt4h.s:206    .text:0000000000000130 .LBE3
     /tmp/ccdzbt4h.s:235    .text:0000000000000150 .LBB4
     /tmp/ccdzbt4h.s:241    .text:0000000000000158 .LBE4

UNDEFINED SYMBOLS
HEAP_START_ADDR
HEAP_END_ADDR
